(dp0
Vryan_kelly
p1
I203527
sVken_keller
p2
I77234
sVjohn_stroud
p3
I78274
sVtate_armstrong
p4
I76059
sVquincy_acy
p5
I203112
sVkeith_herron
p6
I77010
sVtravis_best
p7
I696
sVdoug_lee
p8
I77358
sVchris_douglas-roberts
p9
I201604
sVjames_jones
p10
I2592
sVmirza_teletovic
p11
I203141
sVbilly_cunningham
p12
I76487
sVhoward_nathan
p13
I77690
sVbernard_robinson
p14
I2774
sVvinny_del_negro
p15
I219
sVlonnie_eggleston
p16
I76648
sVhawk_black
p17
I76173
sValonzo_gee
p18
I202087
sVchris_welp
p19
I1846
sVpete_lalich
p20
I77329
sVlarry_spriggs
p21
I78233
sVmarquis_teague
p22
I203104
sVdevin_brown
p23
I2484
sVdavid_vaughn
p24
I710
sVjeff_malone
p25
I117
sVkendall_marshall
p26
I203088
sVtate_george
p27
I76801
sVtaylor_griffin
p28
I201981
sVanthony_tucker
p29
I141
sVsergei_bazarevich
p30
I76128
sVdon_otten
p31
I77778
sVtony_dumas
p32
I434
sVkevin_thompson
p33
I78329
sVjames_blackwell
p34
I1806
sVbob_mullens
p35
I77660
sVhenry_walker
p36
I201611
sVjerry_harkness
p37
I76950
sVmarla_brumfield
p38
I76288
sVderrick_rose
p39
I201565
sVfrank_kendrick
p40
I77242
sVpete_chilcutt
p41
I432
sVarmond_hill
p42
I77024
sVronnie_brewer
p43
I200758
sVsean_green
p44
I76875
sVlorenzo_romar
p45
I78015
sVdon_eliason
p46
I76653
sVrony_seikaly
p47
I938
sVjason_maxiell
p48
I101131
sVtravis_leslie
p49
I202727
sVdavid_greenwood
p50
I76881
sVformerlywalterjones_jones
p51
I77198
sVphil_smith
p52
I78199
sVrick_mahorn
p53
I328
sVdarryl_johnson
p54
I683
sVkc_jones
p55
I77188
sVskip_harlicka
p56
I76951
sVjim_tucker
p57
I78374
sVnik_stauskas
p58
I203917
sVles_hunter
p59
I77084
sVelmer_bennett
p60
I1120
sVben_warley
p61
I78458
sVkenny_rollins
p62
I78012
sVsylvester_norris
p63
I77732
sVspeedy_claxton
p64
I2049
sVnolan_smith
p65
I202701
sVhank_biasatti
p66
I76161
sVdequan_jones
p67
I203199
sVcharles_claxton
p68
I1127
sVjosh_grant
p69
I76852
sVjason_richardson
p70
I2202
sVcharlie_e_davis
p71
I76518
sVdick_gibbs
p72
I76807
sVbuckeye_grate
p73
I76854
sVantonio_lang
p74
I226
sVsean_kilpatrick
p75
I203930
sVsean_marks
p76
I1752
sVcedric_bozeman
p77
I200841
sVzach_randolph
p78
I2216
sVcliff_t_robinson
p79
I77986
sVbrad_miller
p80
I1802
sVjeff_ruland
p81
I78041
sVred_krebs
p82
I77311
sVherb_krautblatt
p83
I77310
sVcory_blackwell
p84
I76177
sVbob_christian
p85
I76395
sVlenny_wilkens
p86
I78530
sVdevyn_marble
p87
I203906
sVdarrell_allums
p88
I76030
sVkelvin_ransey
p89
I77911
sVandrae_patterson
p90
I1754
sVchris_hunter
p91
I201805
sVron_mercer
p92
I1500
sVgeorgi_glouchkov
p93
I76824
sVmachinegun_grant
p94
I76853
sVjack_coleman
p95
I76414
sVdale_davis
p96
I905
sVleo_katkaveck
p97
I77226
sVdavid_wesley
p98
I133
sVal_butler
p99
I76319
sVdoug_smith
p100
I475
sValvin_sims
p101
I1591
sVeldridge_recasner
p102
I695
sVdontae_jones
p103
I963
sVjon_mcglocklin
p104
I77533
sVseth_curry
p105
I203552
sVandrew_lang
p106
I457
sVjason_hart
p107
I2078
sVdon_smith
p108
I78184
sVmichael_stewart
p109
I1565
sVmason_plumlee
p110
I203486
sVdave_lattin
p111
I77342
sVluigi_datome
p112
I203540
sVdalibor_bagaric
p113
I2053
sVbill_downey
p114
I76593
sVsteve_downing
p115
I76594
sVcedric_ball
p116
I76090
sVjawad_williams
p117
I101214
sVralph_davis
p118
I76532
sVtiptoe_triptow
p119
I78368
sVhoward_wright
p120
I78621
sVandray_blatche
p121
I101154
sVpredrag_stojakovic
p122
I978
sVjim_browne
p123
I76287
sVduck_ray
p124
I77918
sVpat_frink
p125
I76759
sVjim_garvin
p126
I76793
sVwally_szczerbiak
p127
I1887
sVjoe_hutton
p128
I77090
sVmilt_palacio
p129
I1960
sVnorman_powell
p130
I1626181
sVmichael_carter-williams
p131
I203487
sVjay_guidinger
p132
I76904
sVstan_washington
p133
I78470
sVmonte_towe
p134
I78361
sVfred_sheffield
p135
I78131
sVlinton_johnson
p136
I2669
sVkeith_owens
p137
I77785
sVcarl_bailey
p138
I76084
sVcherokee_parks
p139
I685
sVhawkeye_whitney
p140
I78519
sVpaul_neumann
p141
I77706
sVfred_lewis
p142
I77379
sVbimbo_coles
p143
I902
sVnikola_jokic
p144
I203999
sVolden_polynice
p145
I178
sVcedric_maxwell
p146
I77487
sVtex_bradds
p147
I76227
sVguy_rodgers
p148
I78003
sVreggie_miller
p149
I397
sVtom_burleson
p150
I76305
sVbob_williams
p151
I78564
sVmaurice_baker
p152
I2486
sVphil_lumpkin
p153
I77424
sVaaron_gordon
p154
I203932
sVnorton_barnhill
p155
I76109
sVbubba_wilson
p156
I78587
sVcliff_williams
p157
I78543
sVjahlil_okafor
p158
I1626143
sVjames_wilkes
p159
I78533
sVbrian_taylor
p160
I78296
sVdick_garmaker
p161
I76783
sVwillie_green
p162
I2584
sVkevin_ollie
p163
I1563
sVsteve_courtin
p164
I76459
sVguy_morgan
p165
I77640
sVevric_gray
p166
I1026
sVjack_f_turner
p167
I78382
sVjake_carter
p168
I76359
sVjordan_clarkson
p169
I203903
sVtyler_ennis
p170
I203898
sVtyus_jones
p171
I1626145
sVvonteego_cummings
p172
I1907
sVtom_payne
p173
I77823
sVvladimir_stepania
p174
I1735
sVwalt_hazzard
p175
I76983
sVshabazz_muhammad
p176
I203498
sVstanley_jackson
p177
I77109
sVantonio_anderson
p178
I202079
sVbobby_portis
p179
I1626171
sVpete_maravich
p180
I77459
sVjeremy_lamb
p181
I203087
sVdave_piontek
p182
I77862
sVjason_sasser
p183
I987
sVwill_cherry
p184
I203805
sVlarry_boston
p185
I76212
sVduane_causwell
p186
I190
sValvin_carlson
p187
I76343
sVtherifle_strickland
p188
I78270
sVdillard_crocker
p189
I76473
sVsnapper_jones
p190
I77197
sVrodrigue_beaubois
p191
I201958
sVkeith_erickson
p192
I76680
sVjamaal_wilkes
p193
I78532
sVshelvin_mack
p194
I202714
sVcharles_bradley
p195
I76230
sVclemon_johnson
p196
I77136
sVronny_turiaf
p197
I101142
sVmark_price
p198
I899
sVthomas_gardner
p199
I201242
sVhoward_eisley
p200
I458
sVart_collins
p201
I76416
sVshad_huston
p202
I77088
sVlee_shaffer
p203
I78121
sVorlando_graham
p204
I76841
sVbill_martin
p205
I77481
sVjames_nunnally
p206
I203263
sVmichael_smith
p207
I78197
sVgani_lawal
p208
I202371
sVdogpatch_swartz
p209
I78285
sVdarko_milicic
p210
I2545
sVjared_cunningham
p211
I203099
sVcarlton_mckinney
p212
I77545
sVbill_robinzine
p213
I77997
sVpatrick_ewing-jr
p214
I201607
sValonzo_bradley
p215
I76229
sVfreddie_crawford
p216
I76466
sVjerome_jordan
p217
I202366
sVdonatas_motiejunas
p218
I202700
sVgary_zeller
p219
I78641
sVbarry_stevens
p220
I78251
sVaj_guyton
p221
I2062
sVfran_curran
p222
I76492
sVpat_durham
p223
I1090
sVtroy_bell
p224
I2559
sVcorey_beck
p225
I1133
sVray_felix
p226
I76704
sVjohnny_payak
p227
I77821
sVscott_lloyd
p228
I77396
sVricky_wilson
p229
I78584
sVbob_cluggish
p230
I76408
sVphil_rollins
p231
I78013
sVtony_harris
p232
I76961
sVwinston_crite
p233
I76472
sVmaury_king
p234
I77272
sVgeorge_ratkovicz
p235
I77913
sVbobby_simmons
p236
I2250
sVcaldwell_jones
p237
I77175
sVbob_wood
p238
I78612
sVpearl_washington
p239
I78465
sVstretch_howard
p240
I77066
sVquincy_lewis
p241
I1900
sVyakhouba_diawara
p242
I200821
sVnegele_knight
p243
I77286
sVjack_nichols
p244
I77713
sVjerome_henderson
p245
I76992
sVjeff_turner
p246
I78381
sVarvid_kramer
p247
I77306
sVmichael_bradley
p248
I2214
sVkelvin_upshaw
p249
I78394
sVwalt_williams
p250
I1005
sVneil_johnson
p251
I77161
sVmartell_webster
p252
I101110
sVjim_thomas
p253
I78320
sVbernard_king
p254
I77264
sVlazaro_borrell
p255
I1953
sVmarko_milic
p256
I1527
sVbobjohn_duffy
p257
I76609
sVben_davis
p258
I989
sVgeorge_lynch
p259
I248
sVbarney_barnhorst
p260
I76110
sVmilos_babic
p261
I76079
sVnorris_coleman
p262
I76415
sVmoose_miller
p263
I77600
sVhoot_gibson
p264
I76811
sVquincy_pondexter
p265
I202347
sVbutch_beard
p266
I76130
sVbutch_lee
p267
I77356
sVjose_barea
p268
I200826
sVdon_barksdale
p269
I76102
sVkebu_stewart
p270
I1529
sVhal_tidrick
p271
I78341
sVradisav_curcic
p272
I76488
sVjim_spruill
p273
I78235
sVray_williams
p274
I78571
sVdick_groat
p275
I76894
sVmel_mcgaha
p276
I77529
sVdwayne_jones
p277
I101204
sVdennis_rodman
p278
I23
sVlee_mayberry
p279
I195
sVmickey_rottner
p280
I78024
sVdick_surhoff
p281
I78280
sVmichael_kearns
p282
I77230
sVbilly_hassett
p283
I76967
sVlarry_robinson
p284
I1683
sVlucius_allen
p285
I76027
sVchris_taft
p286
I101147
sVclarence_weatherspoon
p287
I221
sVjae_crowder
p288
I203109
sVbob_miller
p289
I77603
sVchico_vaughn
p290
I78409
sVdick_ricketts
p291
I77955
sVbevo_nordmann
p292
I77727
sVcharlie_hoefer
p293
I77035
sVmel_thurston
p294
I78340
sVnorm_nixon
p295
I77721
sVmonk_meineke
p296
I77573
sVcorey_maggette
p297
I1894
sVlebron_james
p298
I2544
sVgeorge_hill
p299
I201588
sVbob_knight
p300
I77287
sVeric_mcwilliams
p301
I77567
sVsam_williams
p302
I78568
sVwalt_budko
p303
I76298
sVterence_stansbury
p304
I78241
sVgarry_witts
p305
I78605
sVvassilis_spanoulis
p306
I2779
sVsalah_mejri
p307
I1626257
sVluther_green
p308
I76872
sVmoe_radovich
p309
I77900
sVkevin_mckenna
p310
I77541
sVboris_nachamkin
p311
I77682
sVed_kalafat
p312
I77219
sVjr_giddens
p313
I201592
sVjeff_mullins
p314
I77662
sVjerry_west
p315
I78497
sVjason_miskiri
p316
I1954
sVjeff_martin
p317
I77474
sVmatt_fish
p318
I900
sVcory_carr
p319
I1757
sVjarrett_jack
p320
I101127
sVdarnell_valentine
p321
I78395
sVollie_mack
p322
I77432
sVtaurean_green
p323
I201192
sVoscar_robertson
p324
I600015
sVanthony_pullard
p325
I77890
sVlarry_micheaux
p326
I77588
sVsemih_erden
p327
I201623
sVcharles_e_smith
p328
I78179
sVflash_brian
p329
I76250
sVpace_mannion
p330
I77456
sVjimmy_darden
p331
I76507
sVbigd_imhoff
p332
I77093
sVcazzie_russell
p333
I78045
sVrasheed_wallace
p334
I739
sVmaurice_lucas
p335
I77420
sVanthony_goldwire
p336
I924
sVallan_ray
p337
I200810
sVrick_calloway
p338
I76334
sVbob_doll
p339
I76582
sVgeorge_dempsey
p340
I76555
sVvon_wafer
p341
I101144
sVlance_thomas
p342
I202498
sVstewart_granger
p343
I76847
sVchris_robinson
p344
I997
sVjamario_moon
p345
I200081
sVdon_collins
p346
I76418
sVleon_smith
p347
I1910
sVclarence_kea
p348
I77229
sVbyron_irvin
p349
I77096
sVhowie_dallmar
p350
I76498
sVtom_garrick
p351
I76790
sVjay_edwards
p352
I76643
sVgrant_gondrezick
p353
I76831
sVlorinza_harrington
p354
I2454
sVbyron_houston
p355
I780
sVjack_haley
p356
I917
sVdon_ohl
p357
I77751
sVal_bianchi
p358
I76160
sVbarney_cable
p359
I76324
sVgreg_ballard
p360
I76091
sVbill_herman
p361
I77006
sVdexter_shouse
p362
I78140
sVjohn_gianelli
p363
I76806
sVandre_iguodala
p364
I2738
sVantawn_jamison
p365
I1712
sVjohn_amaechi
p366
I680
sVtony_fuller
p367
I76765
sVmanny_harris
p368
I202412
sVlogan_vander_velden
p369
I78403
sVgreg_oden
p370
I201141
sVbernie_williams
p371
I78540
sVruss_smith
p372
I203893
sVkendall_gill
p373
I383
sVdermarr_johnson
p374
I2035
sVbert_cook
p375
I76434
sVdaniel_santiago
p376
I2091
sVhakim_warrick
p377
I101124
sVchuck_aleksinas
p378
I76021
sVmikki_moore
p379
I1630
sVderrick_gervin
p380
I76803
sVkurt_rambis
p381
I77905
sVetan_thomas
p382
I2041
sVdarvin_ham
p383
I1032
sVkeith_tower
p384
I700
sVmo_layton
p385
I77350
sVdave_jamerson
p386
I77114
sVbob_boozer
p387
I76206
sVjackie_moore
p388
I77634
sVmickell_gladness
p389
I202148
sVbill_hewitt
p390
I77013
sVsean_rooks
p391
I399
sVcharlie_bell
p392
I2294
sVdexter_pittman
p393
I202354
sVdoug_kistler
p394
I77279
sVtravis_mays
p395
I77496
sVmarcus_smart
p396
I203935
sVhenry_dickerson
p397
I76563
sVkent_bazemore
p398
I203145
sVjohn_laskowski
p399
I77341
sVjohn_barr
p400
I76111
sVfrank_russell
p401
I78046
sVeddie_miles
p402
I77596
sVkevin_jones
p403
I203158
sVmike_iuzzolino
p404
I77098
sVmarlon_maxey
p405
I77486
sVcourtney_fortson
p406
I202622
sVtom_heinsohn
p407
I76988
sVbob_greacen
p408
I76865
sVjim_creighton
p409
I76468
sVelfrid_payton
p410
I203901
sVrick_robey
p411
I77984
sVdavid_wear
p412
I204033
sVjim_chones
p413
I76392
sVboag_johnson
p414
I77139
sVrick_hughes
p415
I1965
sVjackson_vroman
p416
I2761
sVjoe_thomas
p417
I78321
sVjim_les
p418
I77372
sVjim_brasco
p419
I76241
sVbill_tosheff
p420
I78359
sVbrandon_roy
p421
I200750
sVtony_bobbitt
p422
I2800
sVdave_deutsch
p423
I76560
sVmike_mccarron
p424
I77503
sVcarrick_felix
p425
I203467
sVdave_fedor
p426
I76697
sVrichard_hamilton
p427
I1888
sVquinton_ross
p428
I2624
sVroko_ukic
p429
I101146
sVbyron_mullens
p430
I201957
sVal_hairston
p431
I76915
sVterry_dozier
p432
I76596
sVchucky_brown
p433
I359
sVtom_hovasse
p434
I77064
sVtommy_byrnes
p435
I76322
sVclyde_lee
p436
I77357
sVmickey_dillard
p437
I76569
sVadrian_caldwell
p438
I154
sVgook_guokas
p439
I76907
sVjeff_taylor
p440
I203106
sVmichael_curry
p441
I688
sVfreddie_lewis
p442
I77380
sVjack_turner
p443
I78380
sVkelenna_azubuike
p444
I101235
sVkhalid_el-amin
p445
I2064
sVbarry_nelson
p446
I77699
sVgene_englund
p447
I76677
sVporter_meriwether
p448
I77583
sVpaul_silas
p449
I78151
sVcole_aldrich
p450
I202332
sVrobbie_hummel
p451
I203133
sVzaid_abdul-aziz
p452
I76002
sVkenny_green
p453
I76869
sVchuck_lowery
p454
I77416
sVjulian_wright
p455
I201153
sVanthony_davis
p456
I203076
sVcecil_hankins
p457
I76935
sVperry_warbington
p458
I78454
sVkeith_jennings
p459
I24
sVbilly_thomas
p460
I2873
sVeric_piatkowski
p461
I15
sVcharlie_shipp
p462
I78653
sVchuck_gilmur
p463
I76818
sVandy_walker
p464
I78433
sVnat_militzok
p465
I77598
sVernie_grunfeld
p466
I76899
sVdennis_stewart
p467
I78253
sVthegoldengreek_kaftan
p468
I77218
sVfrankie_baumholtz
p469
I76126
sVraymond_townsend
p470
I78365
sValex_len
p471
I203458
sVandrew_bynum
p472
I101115
sValexey_shved
p473
I203144
sVmaurice_carter
p474
I2466
sVgerald_green
p475
I101123
sVkevin_love
p476
I201567
sValvin_jones
p477
I2264
sVtom_boerwinkle
p478
I76192
sVart_hillhouse
p479
I77027
sVbear_sheppard
p480
I78135
sVmorlon_wiley
p481
I78528
sVfab_melo
p482
I203097
sVmichael_cooper
p483
I76444
sVnick_vanos
p484
I78407
sVrudy_gobert
p485
I203497
sVfrank_kaminsky
p486
I1626163
sValbert_king
p487
I77263
sVjohn_stroeder
p488
I78271
sVcharlie_pittman
p489
I77864
sVjohn_turner
p490
I1819
sVjames_scott
p491
I1109
sVrussell_westbrook
p492
I201566
sVchris_babb
p493
I203569
sVsteve_hayes
p494
I76980
sVclyde_drexler
p495
I17
sVstilts_risen
p496
I77967
sValexander_volkov
p497
I78421
sVjoe_ingles
p498
I204060
sVpeter_verhoeven
p499
I78414
sVjohn_s_williams
p500
I78554
sVjames_singleton
p501
I101189
sVnando_de_colo
p502
I201986
sVmike_niles
p503
I77718
sVcharlie_hardnett
p504
I76946
sVwallace_bryant
p505
I76291
sVjim_rowinski
p506
I78029
sVray_blume
p507
I76189
sVtim_bassett
p508
I76120
sVotis_smith
p509
I78198
sVmarreese_speights
p510
I201578
sVrobert_whaley
p511
I101156
sVjerry_nagel
p512
I77683
sVbob_dandridge
p513
I76500
sVblair_rasmussen
p514
I78656
sVderrek_dickey
p515
I76564
sVmartynas_andriuskevicius
p516
I101149
sVtrey_lyles
p517
I1626168
sVgreg_deane
p518
I76544
sVed_gayda
p519
I76797
sVcarl_kilpatrick
p520
I77258
sVotis_birdsong
p521
I76170
sVslater_martin
p522
I77480
sVconnie_dierking
p523
I76566
sVdave_stallworth
p524
I78238
sVisaiah_thomas
p525
I202738
sVanthony_roberts
p526
I77975
sVwill_blalock
p527
I200807
sVdesmond_mason
p528
I2046
sVtj_warren
p529
I203933
sVchad_kinch
p530
I77262
sVdave_minor
p531
I77610
sVlester_hudson
p532
I201991
sVpatrick_eddie
p533
I76635
sVgustavo_ayon
p534
I202970
sVrickey_green
p535
I76874
sVsam_pellom
p536
I77829
sVsam_mitchell
p537
I417
sVron_cavenall
p538
I76370
sVbob_feerick
p539
I76698
sVrudo_rudometkin
p540
I78037
sVbrent_price
p541
I85
sVkenny_boyd
p542
I76223
sVgreg_buckner
p543
I1761
sVspoon_weatherspoon
p544
I78475
sVbigbird_restani
p545
I77944
sVmike_farmer
p546
I76694
sVharold_miner
p547
I114
sVglen_rice
p548
I779
sVdrazen_petrovic
p549
I77845
sVbill_russell
p550
I78049
sVrudy_white
p551
I78513
sVdarren_daye
p552
I76543
sVfabricio_oberto
p553
I101177
sVbrian_howard
p554
I77065
sVtony_farmer
p555
I1108
sVelton_brand
p556
I1882
sVwalter_dukes
p557
I76611
sVandrew_wiggins
p558
I203952
sVlarry_drew
p559
I203580
sVjames_posey
p560
I1899
sVlarry_moffett
p561
I77621
sVjerry_paulson
p562
I77816
sVrobert_sacre
p563
I203135
sVrodney_mccray
p564
I1622
sVwesley_johnson
p565
I202325
sVaustin_carr
p566
I76348
sVben_gordon
p567
I2732
sVzip_zopf
p568
I78648
sVkelly_mccarty
p569
I1820
sVtoney_douglas
p570
I201962
sVnick_young
p571
I201156
sVbison_dele
p572
I183
sVhappy_hairston
p573
I76916
sVphil_bond
p574
I76198
sVnate_thurmond
p575
I600001
sVchet_walker
p576
I78435
sVroy_hamilton
p577
I76928
sVdwayne_schintzius
p578
I368
sVnick_anderson
p579
I98
sVlanard_copeland
p580
I76448
sVadrian_dantley
p581
I76504
sVgibby_gibson
p582
I76808
sVbob_hahn
p583
I76914
sVandrew_declercq
p584
I692
sVdick_mcguire
p585
I77537
sVphil_farbman
p586
I76692
sVtommy_kearns
p587
I77231
sVhidayet_turkoglu
p588
I2045
sVsonny_parker
p589
I77800
sVeric_white
p590
I78507
sVal_masino
p591
I77482
sVscott_sims
p592
I78161
sVwingy_wingo
p593
I78596
sVdon_reid
p594
I690
sVchris_wright
p595
I202874
sVtom_tolbert
p596
I78347
sVkevin_seraphin
p597
I202338
sVglen_rice_jr
p598
I203318
sVstan_patrick
p599
I77809
sVdrdunk_hillman
p600
I77028
sVtyson_wheeler
p601
I1755
sVnikoloz_tskitishvili
p602
I2401
sVgreg_graham
p603
I37
sVglenn_hansen
p604
I76940
sVandre_roberson
p605
I203460
sVlawrence_roberts
p606
I101160
sVstan_love
p607
I77413
sVtony_snell
p608
I203503
sVjohn_fairchild
p609
I76691
sVoliver_miller
p610
I932
sVmoose_stanczak
p611
I78240
sVdan_dickau
p612
I2424
sVml_carr
p613
I76351
sVgreg_monroe
p614
I202328
sVed_melvin
p615
I77577
sVbaron_davis
p616
I1884
sVstacey_king
p617
I351
sVmarvin_webster
p618
I78481
sVamir_johnson
p619
I101161
sVmalik_rose
p620
I990
sVkhalid_reeves
p621
I234
sVswen_nater
p622
I77689
sVkenny_battle
p623
I76123
sVjohnny_egan
p624
I76647
sVthurl_bailey
p625
I1847
sVnick_calathes
p626
I201979
sVjohn_block
p627
I76187
sVjeff_cross
p628
I76476
sVmalcolm_thomas
p629
I202952
sVbrant_weidner
p630
I78484
sVbob_allen
p631
I76028
sVbilly_ray_bates
p632
I76121
sVchris__wright
p633
I203203
sVmel_mccants
p634
I77502
sVdevin_gray
p635
I1070
sVtroy_murphy
p636
I2211
sVjosh_childress
p637
I2735
sVrory_sparrow
p638
I600009
sVdarwin_cook
p639
I76435
sVmarqus_blakely
p640
I202392
sVsundiata_gaines
p641
I202178
sVmarko_jaric
p642
I2060
sVed_biedenbach
p643
I76163
sVkenny_fields
p644
I76713
sVtimothy_hardaway
p645
I203501
sVgeorge_mcginnis
p646
I77532
sVjohn_salmons
p647
I2422
sVbobby_phills
p648
I184
sVjames_lang
p649
I2591
sVtom_barker
p650
I76099
sVred_dehnert
p651
I76548
sVchubby_cox
p652
I76463
sVjimmy_collins
p653
I76419
sVwillie_jones
p654
I77202
sVchristian_laettner
p655
I363
sVdrew_barry
p656
I1003
sVrabbit_walthour
p657
I78448
sVwill_perdue
p658
I781
sVron_filipek
p659
I76714
sVcalvin_natt
p660
I77691
sVted_mcclain
p661
I77510
sVrandy_breuer
p662
I76247
sVlee_winfield
p663
I78592
sVchris_herren
p664
I1914
sVkenny_payne
p665
I77822
sVartis_gilmore
p666
I600014
sVcharlie_criss
p667
I76471
sValan_henderson
p668
I673
sVmccoy_ingram
p669
I77095
sVlionel_simmons
p670
I1489
sValvin_attles
p671
I76070
sVmarshall_rogers
p672
I78008
sVterry_furlow
p673
I76767
sVpetur_gudmundsson
p674
I76901
sVkevin_kunnert
p675
I77323
sVmatthew_dellavedova
p676
I203521
sVarvydas_sabonis
p677
I717
sVjamison_brewer
p678
I2249
sVcaron_butler
p679
I2406
sVkenny_satterfield
p680
I2261
sValvin_williams
p681
I1541
sVjarron_collins
p682
I2260
sVnate_bowman
p683
I76219
sVquintin_dailey
p684
I76497
sVmike_gminski
p685
I76826
sValex_stivrins
p686
I78261
sVmike_brittain
p687
I76260
sVdoubled_davis
p688
I76521
sVluke_zeller
p689
I202545
sVbill_calhoun
p690
I76331
sVpete_brennan
p691
I76245
sVjohn_rennicke
p692
I77941
sVnathan_jawai
p693
I201605
sVhenry_bibby
p694
I76162
sVmark_bryant
p695
I95
sVduane_klueh
p696
I77285
sVcoby_karl
p697
I201207
sVdon_buse
p698
I76317
sVwilliam_avery
p699
I1895
sVmike_mitchell
p700
I77615
sVrich_king
p701
I1101
sVcedric_hunter
p702
I77083
sVed_peterson
p703
I77841
sVrodney_stuckey
p704
I201155
sVtom_brennan
p705
I76246
sVchris_owens
p706
I2442
sVjohn_paxson
p707
I77820
sVgail_goodrich
p708
I76832
sVralph_polson
p709
I77868
sVrudy_larusso
p710
I77340
sVsid_tannenbaum
p711
I78291
sVherm_schaefer
p712
I78071
sVluc_mbah_a_moute
p713
I201601
sVleroy_ellis
p714
I76663
sVdaniel_anderson
p715
I76036
sValex_bradley
p716
I76228
sVron_shavlik
p717
I78128
sVtom_kelly
p718
I77238
sVdanny_granger
p719
I101122
sVred_rocha
p720
I77999
sVmike_sanders
p721
I78059
sVsid_catlett
p722
I76367
sVallan_houston
p723
I275
sVmarcus_williams
p724
I200766
sVelden_campbell
p725
I922
sVnorm_baker
p726
I76089
sVsteven_smith
p727
I200848
sVroy_tarpley
p728
I78293
sVrumeal_robinson
p729
I716
sVjohnny_jorgensen
p730
I77211
sVslick_watts
p731
I78473
sVchick_reiser
p732
I77938
sVmike_todorovich
p733
I78346
sVothell_wilson
p734
I78578
sVtony_robertson
p735
I77983
sVacie_earl
p736
I768
sVjohnny_warren
p737
I78461
sVmagic_oleynick
p738
I77759
sVcartier_martin
p739
I201858
sVoliver_lafayette
p740
I201802
sVfrank_fucarino
p741
I76762
sVdominique_jones
p742
I202346
sVpaul_stovall
p743
I78267
sVken_mayfield
p744
I77494
sVgreg_kite
p745
I1123
sVshawn_kemp
p746
I431
sVdanny_ferry
p747
I198
sVbradley_branson
p748
I76239
sVjohn_mandic
p749
I77452
sVmalcolm_mackey
p750
I1635
sValex_hannum
p751
I76937
sVmike_scott
p752
I203118
sVdoug_mcdermott
p753
I203926
sVbrian_rowsom
p754
I78031
sVarron_afflalo
p755
I201167
sVflynn_robinson
p756
I77988
sVtony_bennett
p757
I76148
sVrandy_wittman
p758
I1456
sVharry_donovan
p759
I76585
sVeric_mobley
p760
I211
sVothyus_jeffers
p761
I201785
sVjeff_withey
p762
I203481
sVbob_fitzgerald
p763
I76720
sVbill_wennington
p764
I82
sVjohnny_oldham
p765
I77758
sVjoakim_noah
p766
I201149
sVsamuel_dalembert
p767
I2223
sVsam_worthen
p768
I78618
sVlennie_rosenbluth
p769
I78018
sVtayshaun_prince
p770
I2419
sVnate_mcmillan
p771
I203
sVdesmond_ferguson
p772
I2724
sVluther_wright
p773
I1007
sVjack_tingle
p774
I78344
sVjack_rocker
p775
I78002
sVkevin_gamble
p776
I333
sVkawhi_leonard
p777
I202695
sVashraf_amaya
p778
I732
sVjohn_rudd
p779
I78036
sVsherwin_raiken
p780
I77903
sVanthony_peeler
p781
I324
sVjay_murphy
p782
I77670
sVglenn_robinson
p783
I299
sVlevi_fontaine
p784
I76731
sVed_beach
p785
I76129
sVaj_english
p786
I76672
sVruss_schoene
p787
I78087
sVpau_gasol
p788
I2200
sVjim_mcelroy
p789
I77528
sVgene_short
p790
I78138
sVwilt_chamberlain
p791
I76375
sVkeith_mcleod
p792
I2693
sVjay_arnette
p793
I76063
sVhamady_ndiaye
p794
I202380
sVharry_barnes
p795
I76103
sVjon_koncak
p796
I402
sVricky_blanton
p797
I76184
sVchris_harris
p798
I76958
sVleon_powe
p799
I200796
sVmalik_allen
p800
I2124
sVjohnny_horan
p801
I77055
sVjeff_foster
p802
I1902
sVshavlik_randolph
p803
I101183
sVrandolph_morris
p804
I201043
sVotto_porter
p805
I203490
sVrandy_woods
p806
I1010
sVmike_gale
p807
I76771
sVjan_vesely
p808
I202686
sVbrad_davis
p809
I76516
sVvoise_winters
p810
I78601
sVderek_fisher
p811
I965
sVcleanthony_early
p812
I203921
sVmonti_davis
p813
I76520
sVbulbs_ehlers
p814
I76649
sVdiamon_simpson
p815
I202067
sVantonio_burks
p816
I2766
sVbrett_szabo
p817
I1136
sVbobby_hogsett
p818
I77037
sVhowie_shannon
p819
I78124
sVleo_mogus
p820
I77622
sVlarry_cannon
p821
I76339
sVjelani_mccoy
p822
I1741
sVace_gottlieb
p823
I76836
sVmark_baker
p824
I1858
sVraulzinho_neto
p825
I203526
sVdon_anielak
p826
I76049
sVjerome_williams
p827
I966
sVdave_schellhase
p828
I78081
sVrafer_alston
p829
I1747
sVjim_brogan
p830
I76262
sVjohn_trapp
p831
I78367
sVmatt_carroll
p832
I2679
sVdoron_lamb
p833
I203117
sVjerel_mcneal
p834
I202077
sVrudy_macklin
p835
I77435
sVyao_ming
p836
I2397
sVshane_heal
p837
I1049
sVscotty_hopson
p838
I203816
sVtodd_mundt
p839
I942
sVryan_reid
p840
I202385
sVbob_quick
p841
I77892
sVhowie_montgomery
p842
I77630
sVeddie_owens
p843
I77782
sVmarshall_hawkins
p844
I76974
sVbyron_scott
p845
I2
sVnate_delong
p846
I76551
sVaj_wynder
p847
I78627
sVjohnny_logan
p848
I77403
sVroger_brown
p849
I76286
sVjared_dudley
p850
I201162
sVcameron_payne
p851
I1626166
sVrickey_brown
p852
I76283
sVal_henry
p853
I77000
sVnorm_richardson
p854
I2369
sVluke_ridnour
p855
I2557
sVclint_wager
p856
I78427
sVmark_bradtke
p857
I1361
sVbruce_bowen
p858
I1477
sVlatrell_sprewell
p859
I84
sVtom_chambers
p860
I1472
sVelias_harris
p861
I203548
sVspider_hairston
p862
I76917
sVbill_bradley
p863
I76233
sVkeith_lee
p864
I77361
sVlen_chappell
p865
I76382
sVmarcus_camby
p866
I948
sVwillie_wise
p867
I78602
sVjeff_webster
p868
I1067
sVjordan_farmar
p869
I200770
sVham_hamilton
p870
I76927
sVjorgy_jorgensen
p871
I77212
sVsteve_mix
p872
I77618
sVderrick_phelps
p873
I74
sVtommy_patterson
p874
I77813
sVrj_hunter
p875
I1626154
sVanfernee_hardaway
p876
I358
sVlowes_moore
p877
I77635
sVleonard_taylor
p878
I78301
sVron_horn
p879
I77058
sVkleggie_hermsen
p880
I77007
sVlamont_strothers
p881
I78273
sVjimmy_king
p882
I728
sVjerald_honeycutt
p883
I1532
sVderrick_williams
p884
I202682
sVhawk_workman
p885
I78617
sVsteve_novak
p886
I200779
sVkevin_stacom
p887
I78237
sVdennis_bell
p888
I76142
sVmark_macon
p889
I1855
sVansu_sesay
p890
I1738
sVgarth_joseph
p891
I2123
sVed_bartels
p892
I76117
sVbill_thieben
p893
I78312
sVdupp_gary_brokaw
p894
I76263
sVdamien_inglis
p895
I203996
sVmo_martin
p896
I77476
sVjared_reiner
p897
I2876
sVkevin_loughery
p898
I77411
sVbill_willoughby
p899
I78577
sVike_austin
p900
I1134
sVpaul_shirley
p901
I2321
sVpatrick_ewing
p902
I121
sVray_radziszewski
p903
I77901
sVjohnny_orr
p904
I77769
sVray_kuka
p905
I77322
sVcountry_king
p906
I77270
sVkareem_abdul-jabbar
p907
I76003
sVcurtis_borchardt
p908
I2414
sVmichael_adams
p909
I149
sVcarl_herrera
p910
I61
sVtoby_knight
p911
I77289
sVcharles_jenkins
p912
I202724
sVcorsley_edwards
p913
I2451
sVdontonio_wingfield
p914
I112
sVcharlie_paulk
p915
I77815
sVbill_curley
p916
I223
sVwally_osterkorn
p917
I77775
sVtracy_jackson
p918
I77110
sVkobe_bryant
p919
I977
sVbob_kinney
p920
I77277
sVcharles_barkley
p921
I787
sVjim_johnstone
p922
I77171
sVconnie_norman
p923
I77729
sVkevin_garnett
p924
I708
sVgranville_waiters
p925
I78430
sVjoe_reaves
p926
I77923
sVsolomon_alabi
p927
I202374
sVanthony_mason
p928
I193
sVclaude_gregory
p929
I76884
sVjj_redick
p930
I200755
sVgene_shue
p931
I78142
sVwillie_mccarter
p932
I77505
sVmark_radford
p933
I77896
sVtoure_murry
p934
I203315
sVwalter_herrmann
p935
I200835
sVcliff_meely
p936
I77570
sVrob_lock
p937
I77398
sVronnie_lester
p938
I77373
sVbj_tyler
p939
I189
sVwillie_anderson
p940
I335
sVdarren_collison
p941
I201954
sVgolden_rule
p942
I78042
sVchris_johnson
p943
I202419
sVkim_anderson
p944
I76041
sVphil_walker
p945
I78441
sVnorris_cole
p946
I202708
sVrolando_blackman
p947
I76176
sVgarrett_temple
p948
I202066
sVfred_jacobs
p949
I77112
sVbarry_yates
p950
I78629
sVjim_ray
p951
I77919
sVterry_crosby
p952
I76475
sVkenny_gattison
p953
I930
sVdwayne_morton
p954
I132
sVcuttino_mobley
p955
I1749
sVomri_casspi
p956
I201956
sVdennis_nutt
p957
I77738
sVsmiles_smiley
p958
I78177
sVdean_oliver
p959
I2352
sValton_ford
p960
I2228
sVjordan_hill
p961
I201941
sVodie_smith
p962
I78178
sVron_carter
p963
I76361
sVdwayne_mcclain
p964
I77509
sVmarkieff_morris
p965
I202693
sVgary_forbes
p966
I201814
sVlinton_townes
p967
I78364
sVken_bannister
p968
I76094
sVkeyon_dooling
p969
I2039
sVart_long
p970
I1609
sVjud_buechler
p971
I146
sVlewis_lloyd
p972
I77395
sVmaurice_evans
p973
I2230
sVcliff_barker
p974
I76098
sVvirgil_vaughn
p975
I78411
sVkeith_mccord
p976
I77515
sVdetlef_schrempf
p977
I96
sVmike_silliman
p978
I78152
sVgeorge_johnson
p979
I77147
sVmelvin_sanders
p980
I2684
sVderrick_dial
p981
I1760
sVtom_lagarde
p982
I77328
sVpaul_arizin
p983
I76056
sVdino_radja
p984
I129
sValexis_ajinca
p985
I201582
sVkalin_lucas
p986
I203564
sVharold_kottman
p987
I77304
sVorlando_johnson
p988
I203111
sVkeith_closs
p989
I1569
sVwhitey_vonnieda
p990
I78422
sVlarry_jones
p991
I77200
sVdj_stephens
p992
I203474
sVkenny_smith
p993
I181
sVruben_boumtje_boumtje
p994
I2257
sVjerry_smith
p995
I202536
sVdarnell_mee
p996
I1577
sVneedle_gates
p997
I76794
sVbruce_hale
p998
I76920
sVpatrick_mills
p999
I201988
sVgeoff_crompton
p1000
I76474
sVrex_chapman
p1001
I364
sVjerry_lucas
p1002
I77418
sVmario_hezonja
p1003
I1626209
sVcarl_landry
p1004
I201171
sVmarc_jackson
p1005
I1531
sVmike_lynn
p1006
I77427
sVearl_boykins
p1007
I1863
sVirving_thomas
p1008
I78317
sVjim_marsh
p1009
I77466
sVdennis_hopson
p1010
I77054
sVkeith_bogans
p1011
I2586
sVemanuel_ginobili
p1012
I1938
sVtracy_mcgrady
p1013
I1503
sVhenry_sims
p1014
I203156
sVdamon_jones
p1015
I1800
sVbo_outlaw
p1016
I448
sVzeke_zawoluk
p1017
I78639
sVhoracio_llamas
p1018
I1024
sVjustin_dentmon
p1019
I202458
sVgary_alcorn
p1020
I76020
sVwhitey_macknowski
p1021
I77436
sVkeith_benson
p1022
I202728
sVjoe_johnson
p1023
I2207
sVbob_o'brien
p1024
I77744
sVjoe_crawford
p1025
I201621
sVwayne_stevens
p1026
I78252
sVdennis_horner
p1027
I202862
sVjeff_lamp
p1028
I77332
sVtack_thacker
p1029
I78309
sVclinton_smith
p1030
I78181
sVfestus_ezeli
p1031
I203105
sVmelvin_ely
p1032
I2408
sVaustin_croshere
p1033
I1506
sVmagnum_rolle
p1034
I202375
sVpaul_george
p1035
I202331
sVandre_wakefield
p1036
I78431
sVdupp_pat_riley
p1037
I77962
sVbigz_beaty
p1038
I76133
sVwillie_naulls
p1039
I77693
sVtornike_shengelia
p1040
I203129
sVdale_wilkinson
p1041
I78538
sVhowie_mccarty
p1042
I77507
sVeddie_gill
p1043
I2109
sVdanny_doyle
p1044
I76595
sVdave_magley
p1045
I77442
sVshelton_jones
p1046
I2652
sVgene_rhodes
p1047
I77947
sVlarry_hughes
p1048
I1716
sVkevin_salvadori
p1049
I1089
sVmack_calvin
p1050
I76336
sVkedrick_brown
p1051
I2208
sVeric_fernsten
p1052
I76707
sVreggie_smith
p1053
I78201
sVgerald_fitch
p1054
I2809
sVdutch_garfinkel
p1055
I76780
sVmark_hendrickson
p1056
I971
sVbill_turner
p1057
I78385
sVrob_williams
p1058
I78565
sVherb_scherer
p1059
I78082
sVbob_martin
p1060
I77478
sVwhitey_martin
p1061
I77479
sVloren_meyer
p1062
I684
sVroland_west
p1063
I78499
sVbucky_mcconnell
p1064
I77514
sVed_gray
p1065
I1516
sVbob_arnzen
p1066
I76064
sVkevin_o'shea
p1067
I77773
sVjoe_kennedy
p1068
I77244
sVbrent_barry
p1069
I699
sVquinn_buckner
p1070
I76296
sVdarrin_hancock
p1071
I241
sVticky_burden
p1072
I76303
sVstromile_swift
p1073
I2031
sVvern_mikkelsen
p1074
I77593
sVsolomon_jones
p1075
I200780
sVotis_howard
p1076
I77069
sVisaiah_rider
p1077
I375
sVclaude_terry
p1078
I78308
sVjordan_mickey
p1079
I1626175
sVcharles_a_jones
p1080
I77178
sVnelson_bobb
p1081
I76190
sVpooh_richardson
p1082
I71
sVmickael_gelabale
p1083
I101153
sVjohn_arthurs
p1084
I76065
sVzan_tabak
p1085
I440
sVkhris_middleton
p1086
I203114
sVterrence_rencher
p1087
I720
sVsidney_lowe
p1088
I77415
sVdick_van_arsdale
p1089
I78398
sVjodie_meeks
p1090
I201975
sVdennis_hamilton
p1091
I76926
sVvander_blue
p1092
I203505
sVgene_dyker
p1093
I76626
sVantonis_fotsis
p1094
I2238
sVmajor_jones
p1095
I77189
sVnazr_mohammed
p1096
I1737
sVfranklin_edwards
p1097
I76641
sVbill_walton
p1098
I78450
sVchris_mihm
p1099
I2036
sVpat_burke
p1100
I2469
sVandrei_kirilenko
p1101
I1905
sVwillie_warren
p1102
I202378
sVpurvis_short
p1103
I78139
sVbernie_harris
p1104
I76957
sVron_behagen
p1105
I76140
sVibrahim_kutluay
p1106
I2825
sVmetta_world_peace
p1107
I1897
sVdanny_wagner
p1108
I78428
sVjoseph_holland
p1109
I77041
sVpat_garrity
p1110
I1727
sVray_allen
p1111
I951
sVmike_james
p1112
I2229
sVlewis_brown
p1113
I76279
sVtariq_abdul-wahad
p1114
I1505
sVjim_springer
p1115
I78234
sVivano_newbill
p1116
I1096
sVbrian_scalabrine
p1117
I2243
sVsun_yue
p1118
I201180
sVjeff_slade
p1119
I78170
sVtyreke_evans
p1120
I201936
sVcj_kupec
p1121
I77325
sVersan_ilyasova
p1122
I101141
sVkeith_langford
p1123
I101247
sVdennis_boyd
p1124
I76221
sVjameer_nelson
p1125
I2749
sVjim_slaughter
p1126
I78171
sVjohn_windsor
p1127
I78591
sVbrownie_brown
p1128
I76275
sVerwin_mueller
p1129
I77658
sVcarmelo_anthony
p1130
I2546
sVjr_smith
p1131
I2747
sVcarlos_boozer
p1132
I2430
sVfoots_walker
p1133
I78436
sVquincy_douby
p1134
I200763
sVbumper_tormohlen
p1135
I78358
sVned_endress
p1136
I76669
sVwayne_ellington
p1137
I201961
sVroy_marble
p1138
I77460
sVgene_guarilia
p1139
I76900
sVsean_lampley
p1140
I2253
sVluther_head
p1141
I101129
sVkent_edelin
p1142
I76637
sVstanislav_medvedenko
p1143
I2098
sVgary_gregor
p1144
I76883
sVdee_brown
p1145
I200793
sVdon_may
p1146
I77489
sVjonas_valanciunas
p1147
I202685
sVchris_smith
p1148
I203147
sVtamar_slay
p1149
I2447
sVmike_newlin
p1150
I77710
sVbato_govedarica
p1151
I76837
sVralph_simpson
p1152
I78157
sVmicheal_williams
p1153
I52
sVnoel_felix
p1154
I101230
sVognjen_kuzmic
p1155
I203136
sVemanual_davis
p1156
I1023
sVkyle_anderson
p1157
I203937
sVal_miksis
p1158
I77594
sVarmand_cure
p1159
I76489
sValex_scales
p1160
I2637
sVjim_barnes
p1161
I76105
sVdrew_gordon
p1162
I204079
sVdick_duckett
p1163
I76605
sVdupp_kim_hughes
p1164
I77078
sVjames_johnson
p1165
I201949
sVshammond_williams
p1166
I1742
sVleonard_gray
p1167
I76860
sVthales_mcreynolds
p1168
I77566
sVandreas_glyniadakis
p1169
I2601
sVeddie_a_johnson
p1170
I698
sVrodney_white
p1171
I2206
sVerick_dampier
p1172
I956
sVbob_thornton
p1173
I738
sVsherman_douglas
p1174
I428
sVmark_davis
p1175
I707
sVtr_dunn
p1176
I76618
sVmckinley_singleton
p1177
I78162
sValex_garcia
p1178
I2682
sVduane_washington
p1179
I78464
sVhank_rosenstein
p1180
I78019
sVdon_ford
p1181
I76734
sVcal_christensen
p1182
I76394
sVdan_langhi
p1183
I2061
sVsolomon_hill
p1184
I203524
sVdwight_buycks
p1185
I202779
sVscott_hastings
p1186
I76968
sVed_sadowski
p1187
I78050
sVjameson_curry
p1188
I201191
sVcharles_d_smith
p1189
I293
sVtom_sluby
p1190
I78174
sVjohn_thomas
p1191
I1519
sVwalt_wesley
p1192
I78495
sVjim_riffey
p1193
I77959
sVdan_mcclintock
p1194
I2082
sVcharles_r_jones
p1195
I1869
sVhawk_j_hawkins
p1196
I76977
sVbilly_paultz
p1197
I77817
sVchris_richard
p1198
I201181
sVcoulby_gunther
p1199
I76905
sVkaniel_dickens
p1200
I2079
sVvince_carter
p1201
I1713
sVdavid_britton
p1202
I76261
sVjack_toomay
p1203
I78355
sVcarey_scurry
p1204
I78102
sVterry_tyler
p1205
I78390
sVchet_carlisle
p1206
I76341
sVjoe_mullaney
p1207
I77659
sVmichael_davis
p1208
I76530
sVjon_sundvold
p1209
I78279
sVjohnny_austin
p1210
I76073
sVjason_collier
p1211
I2044
sVandrew_bogut
p1212
I101106
sVgeorge_blaney
p1213
I76182
sVwhitey_scharnus
p1214
I78073
sVjake_voskuhl
p1215
I2063
sVbrandon_jennings
p1216
I201943
sValeksandar_djordjevic
p1217
I1059
sVandy_johnson
p1218
I77131
sVpaul_griffin
p1219
I76889
sVgerald_paddio
p1220
I77789
sVmike_smrek
p1221
I1091
sVlabradford_smith
p1222
I78194
sVwayne_see
p1223
I78107
sVchris_jefferies
p1224
I2423
sVsebastian_telfair
p1225
I2742
sVoscar_dille
p1226
I76570
sVchuck_grigsby
p1227
I76891
sVron_watts
p1228
I78474
sVleandro_barbosa
p1229
I2571
sVdick_eichhorst
p1230
I76651
sVpaul_noel
p1231
I77723
sVderrick_zimmerman
p1232
I2583
sVcorliss_williamson
p1233
I722
sVarvydas_macijauskas
p1234
I101178
sVkurk_lee
p1235
I77362
sVacie_law
p1236
I201151
sVmario_chalmers
p1237
I201596
sVmarques_johnson
p1238
I77160
sVgreg_fillmore
p1239
I76715
sVjerry_stackhouse
p1240
I711
sVedwin_ubiles
p1241
I202775
sVamal_mccaskill
p1242
I1043
sVjake_fendley
p1243
I76705
sVdick_o'keefe
p1244
I77752
sVkarl_malone
p1245
I252
sVjeff_green
p1246
I201145
sVmo_howard
p1247
I77067
sVphil_hubbard
p1248
I77071
sVles_pugh
p1249
I77888
sVmaalik_wayns
p1250
I203146
sVtom_marshall
p1251
I77467
sVjohnny_kerr
p1252
I77248
sVgoran_dragic
p1253
I201609
sVbob_riley
p1254
I77963
sVjohn_barber
p1255
I76096
sVbill_jones
p1256
I77180
sVgary_phillips
p1257
I77855
sVnate_hawthorne
p1258
I76978
sVsky_siewert
p1259
I78148
sVdraymond_green
p1260
I203110
sVmaceo_baston
p1261
I1766
sVgreg_sutton
p1262
I357
sVphil_ford
p1263
I76736
sVemmanuel_mudiay
p1264
I1626144
sVjake_bornheimer
p1265
I76207
sVcurly_armstrong
p1266
I76060
sVandres_nocioni
p1267
I2804
sVmark_wade
p1268
I78426
sVrobin_jones
p1269
I77194
sVgino_sovran
p1270
I78221
sVpredrag_savovic
p1271
I2453
sVjamal_robinson
p1272
I1554
sVbigcat_lloyd
p1273
I77394
sVjj_hickson
p1274
I201581
sVgreivis_vasquez
p1275
I202349
sVruben_patterson
p1276
I1739
sVorlando_woolridge
p1277
I78615
sVnikola_vucevic
p1278
I202696
sVdupp_jim_paxson
p1279
I77818
sVkevin_duckworth
p1280
I404
sVtrevor_ruffin
p1281
I460
sVben_coleman
p1282
I76412
sVrandolph_keys
p1283
I705
sVjon_brockman
p1284
I201972
sVmike_green
p1285
I76873
sVbryce_cotton
p1286
I203955
sVstacey_augmon
p1287
I278
sVblindbomber_glamack
p1288
I76820
sVdale_ellis
p1289
I107
sVkristaps_porzingis
p1290
I204001
sVrobert_kurz
p1291
I201633
sVcharlie_yelverton
p1292
I78631
sVeric_dawson
p1293
I201286
sVreggie_hanson
p1294
I1682
sVmilo_komenich
p1295
I77296
sVmed_park
p1296
I77799
sVsidney_green
p1297
I76876
sVjesse_arnelle
p1298
I76062
sVwalter_tavares
p1299
I204002
sVhasheem_thabeet
p1300
I201934
sVgeorge_gervin
p1301
I76804
sVdave_meyers
p1302
I77586
sVcalvin_murphy
p1303
I77669
sVjeff_lebo
p1304
I77354
sVmatt_wenstrom
p1305
I78492
sVchinagames
p1306
I2071
sVmarques_bragg
p1307
I66
sVfritz_williams
p1308
I78567
sVtom_ingelsby
p1309
I77094
sVcoby_dietrick
p1310
I76567
sVkj_mcdaniels
p1311
I203909
sVron_anderson
p1312
I76046
sVmelvin_booker
p1313
I511
sVdutch_fuetsch
p1314
I76763
sVtom_vanarsdale
p1315
I78399
sVjack_twyman
p1316
I78388
sVbob_verga
p1317
I78413
sVrobert_pack
p1318
I123
sVchuck_osborne
p1319
I77772
sVal_thornton
p1320
I201154
sVdick_snyder
p1321
I78213
sVdejuan_blair
p1322
I201971
sVmike_brown
p1323
I1479
sVmike_muscala
p1324
I203488
sVdamjan_rudez
p1325
I204014
sVpaul_gordon
p1326
I76835
sVbradley_beal
p1327
I203078
sVmike_o'neill
p1328
I77767
sVchris_engler
p1329
I76670
sVmel_peterson
p1330
I77842
sVira_terrell
p1331
I78305
sVrandy_smith
p1332
I78200
sVdavid_benoit
p1333
I128
sVlee_knorek
p1334
I77291
sVdanny_fortson
p1335
I1504
sVmike_wilson
p1336
I78581
sVwillie_reed
p1337
I203186
sVed_ratleff
p1338
I77914
sVekpe_udoh
p1339
I202327
sVtmp_makhtar_ndiaye
p1340
I1823
sVsedric_toney
p1341
I78352
sVbyron_beck
p1342
I76134
sVbo_kimble
p1343
I77260
sVdon_adams
p1344
I76012
sVtony_delk
p1345
I960
sVwhitey_skoog
p1346
I78169
sVdave_popson
p1347
I77872
sVjames_edwards
p1348
I229
sVgreg_griffin
p1349
I76888
sVrobert_churchwell
p1350
I928
sVwahwah_jones
p1351
I77199
sVbill_davis
p1352
I76538
sVwinston_bennett
p1353
I76152
sVbobby_lewis
p1354
I77385
sVlari_ketner
p1355
I1930
sVwayne_embry
p1356
I76668
sVjohn_tresvant
p1357
I78651
sVjerrod_mustaf
p1358
I1054
sVtorgeir_bryn
p1359
I76292
sVclaude_overton
p1360
I77780
sVsean_williams
p1361
I201157
sVluke_schenscher
p1362
I101195
sVeric_johnson
p1363
I77145
sVpeter_aluma
p1364
I1824
sVforrest_mckenzie
p1365
I77542
sVkosta_perovic
p1366
I200785
sVaaron_brooks
p1367
I201166
sVmorris_almond
p1368
I201165
sVwillis_reed
p1369
I77929
sVmark_west
p1370
I770
sVlefty_walther
p1371
I78447
sVlarry_staverman
p1372
I78244
sVdavid_thirdkill
p1373
I78314
sVanthony_johnson
p1374
I1533
sVart_harris
p1375
I76956
sVhollis_thompson
p1376
I203138
sVjulyan_stone
p1377
I202933
sVrusty_larue
p1378
I1601
sVjohnny_taylor
p1379
I1511
sVron_crevier
p1380
I76469
sVeduardo_najera
p1381
I2059
sValex_english
p1382
I76673
sVoleksiy_pecherov
p1383
I200762
sVelmer_behnke
p1384
I76141
sVcourtney_sims
p1385
I201235
sVwill_barton
p1386
I203115
sVderek_smith
p1387
I78183
sVclint_capela
p1388
I203991
sVrobert_hite
p1389
I200823
sVrich_yonakor
p1390
I78632
sVchris_andersen
p1391
I2365
sVpat_dunn
p1392
I76617
sVtom_gugliotta
p1393
I339
sVsteve_bracey
p1394
I76226
sVkenny_natt
p1395
I77692
sVandris_biedrins
p1396
I2740
sVtom_hammonds
p1397
I67
sVbells_colone
p1398
I76422
sVjarnell_stokes
p1399
I203950
sVaudie_norris
p1400
I77731
sVryan_stack
p1401
I1756
sVsam_smith
p1402
I78205
sVcharlie_sitton
p1403
I78164
sVbobby_cattage
p1404
I76368
sVcraig_brackins
p1405
I202342
sVdave_johnson
p1406
I77138
sVmarcelo_huertas
p1407
I1626273
sVjohn_hummer
p1408
I77080
sVdavid_andersen
p1409
I2431
sVjamal_mashburn
p1410
I469
sVandy_rautins
p1411
I202360
sVcarl_nicks
p1412
I77715
sVjj_johnson
p1413
I77152
sVjim_neal
p1414
I77695
sVjawann_oldham
p1415
I77757
sVelliot_perry
p1416
I386
sVrod_higgins
p1417
I77019
sVbob_armstrong
p1418
I76061
sVfred_taylor
p1419
I78298
sVhollis_copeland
p1420
I76447
sVrichie_guerin
p1421
I76902
sVsunshine_sorenson
p1422
I78220
sVkirk_hinrich
p1423
I2550
sVsteve_smith
p1424
I120
sVreggie_williams
p1425
I202130
sVbrandon_williams
p1426
I1585
sVjoe_bradley
p1427
I76232
sVsweets_nelson
p1428
I77701
sVzoran_dragic
p1429
I204054
sVvoshon_lenard
p1430
I702
sVmike_bibby
p1431
I1710
sVdell_curry
p1432
I209
sVgerald_brown
p1433
I1871
sVdwight_anderson
p1434
I76037
sVmitch_kupchak
p1435
I77324
sVmike_ratliff
p1436
I77915
sVmustafa_shakur
p1437
I201203
sVmilt_schoon
p1438
I78089
sVbill_henry
p1439
I77004
sValexander_johnson
p1440
I200792
sVbryce_drew
p1441
I1724
sVruben_wolkowyski
p1442
I2106
sVrodrick_rhodes
p1443
I1518
sVfrank_selvy
p1444
I78113
sVjohn_olive
p1445
I77760
sVadrian_griffin
p1446
I1559
sVhamed_haddadi
p1447
I201632
sVmel_turpin
p1448
I78386
sVron_riley
p1449
I77964
sVlarue_martin
p1450
I77475
sVmark_alarie
p1451
I76019
sVjeff_nordgaard
p1452
I999
sVwalt_miller
p1453
I77604
sVmalik_sealy
p1454
I907
sVjoe_meriweather
p1455
I77582
sVdonnie_forman
p1456
I76738
sVnat_hickey
p1457
I77016
sVfred_hoiberg
p1458
I697
sVhambone_williams
p1459
I78539
sVandre_barrett
p1460
I2857
sVnate_archibald
p1461
I76054
sVtyronn_lue
p1462
I1731
sVryan_hollins
p1463
I200797
sVaaron_gray
p1464
I201189
sVcornelius_cash
p1465
I76364
sVvinnie_johnson
p1466
I77167
sVandre_miller
p1467
I1889
sVgary_trent
p1468
I718
sVsam_sibert
p1469
I78144
sVrollie_seltz
p1470
I78112
sVdemetris_nichols
p1471
I201193
sVsteve_henson
p1472
I1667
sVfrank_mangiapane
p1473
I77453
sVjalen_rose
p1474
I147
sVsonny_hertzberg
p1475
I77011
sVgundars_vetra
p1476
I78415
sVdonald_whiteside
p1477
I1126
sVmike_williams
p1478
I78558
sVcory_higgins
p1479
I202809
sVchuck_terry
p1480
I78306
sVkevin_martin
p1481
I2755
sVerik_daniels
p1482
I2845
sVdoug_edwards
p1483
I346
sVjohn_shasky
p1484
I1117
sVmonty_williams
p1485
I42
sVroger_phegley
p1486
I77848
sVmengke_bateer
p1487
I2370
sVsam_young
p1488
I201970
sVmatt_guokas
p1489
I76908
sVspencer_dinwiddie
p1490
I203915
sVchris_garner
p1491
I1612
sVjordan_hamilton
p1492
I202706
sVjoe_smyth
p1493
I78212
sVmike_davis
p1494
I76531
sVjannero_pargo
p1495
I2457
sVjr_henderson
p1496
I1764
sVscott_haffner
p1497
I76911
sVbob_mccann
p1498
I737
sVsteven_adams
p1499
I203500
sVbarry_clemens
p1500
I76403
sVgene_wiley
p1501
I78526
sVlaron_profit
p1502
I1919
sVmatt_barnes
p1503
I2440
sVchris_dudley
p1504
I201
sVjohnny_green
p1505
I76867
sVac_green
p1506
I920
sVhorace_jenkins
p1507
I2798
sVfelton_spencer
p1508
I280
sVobinna_ekezie
p1509
I1918
sVpatrick_christopher
p1510
I203565
sVjames_bailey
p1511
I76085
sVjoe_wolf
p1512
I341
sVdonald_lofgran
p1513
I77402
sVmitch_mcgary
p1514
I203956
sVjake_ford
p1515
I76735
sVandy_kostecka
p1516
I77303
sVlarry_stewart
p1517
I1125
sVchuck_person
p1518
I456
sVpaul_long
p1519
I77406
sVjamel_thomas
p1520
I1975
sVrobert_parish
p1521
I305
sVvladimir_radmanovic
p1522
I2209
sVnat_frankel
p1523
I76749
sVstan_pietkiewicz
p1524
I77858
sVtrevor_winter
p1525
I1868
sVjohn_edwards
p1526
I2823
sVbuckshot_o'brien
p1527
I77743
sVspencer_hawes
p1528
I201150
sVjonas_jerebko
p1529
I201973
sVmike_gibson
p1530
I76810
sVmichael_doleac
p1531
I1720
sVcharles_shackleford
p1532
I1593
sVsweetwater_clifton
p1533
I76404
sVbill_stricker
p1534
I78269
sVtoby_kimball
p1535
I77259
sVbob_sims
p1536
I78160
sVleon_benbow
p1537
I76146
sVquincy_miller
p1538
I203113
sVjarvis_varnado
p1539
I202363
sVbill_hanzlik
p1540
I76944
sVnate_williams
p1541
I78561
sVevan_eschmeyer
p1542
I1915
sVshawne_williams
p1543
I200761
sVdesmond_penigar
p1544
I2667
sVcharlie_scott
p1545
I78097
sVdonald_sloan
p1546
I202388
sVtommy_o'keefe
p1547
I77753
sVtroy_daniels
p1548
I203584
sVterry_thomas
p1549
I78322
sVsoumaila_samake
p1550
I2066
sVgreg_dreiling
p1551
I1068
sVeddie_robinson
p1552
I1944
sVmike_conley
p1553
I201144
sVfuzzy_levane
p1554
I77375
sVdarrun_hilliard
p1555
I1626199
sVherm_gilliam
p1556
I76815
sVbear_hoffman
p1557
I77036
sVjose_calderon
p1558
I101181
sVeric_washington
p1559
I1540
sVjack_stephens
p1560
I78249
sVcalvin_booth
p1561
I1916
sVmarcus_cousin
p1562
I202408
sVrodney_monroe
p1563
I77628
sVanthony_grundy
p1564
I101219
sVarmen_gilliam
p1565
I288
sVsteve_francis
p1566
I1883
sVsteve_hamilton
p1567
I76929
sVbobby_washington
p1568
I78469
sVeverette_stephens
p1569
I78247
sVdavid_pope
p1570
I77870
sVron_brewer
p1571
I76249
sVjoe_binion
p1572
I76167
sVdaniel_green
p1573
I201980
sVrabbit_barnhill
p1574
I76108
sVdavid_harrison
p1575
I2758
sVrich_rinaldi
p1576
I77965
sVnikola_mirotic
p1577
I202703
sVbob_wiesenhahn
p1578
I78522
sVeddie_griffin
p1579
I2204
sVjohn_pilch
p1580
I77859
sVkeith_booth
p1581
I1522
sVmichael_brooks
p1582
I76266
sVtom_copa
p1583
I76446
sVdarrell_brown
p1584
I76270
sVcraig_ehlo
p1585
I378
sVdavid_wood
p1586
I116
sVdick_atha
p1587
I76069
sVnorm_stewart
p1588
I78256
sVfred_foster
p1589
I76740
sVrandy_holcomb
p1590
I2450
sVelmore_spencer
p1591
I771
sVconnie_rea
p1592
I77922
sVrakeem_christmas
p1593
I1626176
sVgeorge_mearns
p1594
I77568
sVralph_jackson
p1595
I77107
sVwinford_boynes
p1596
I76225
sVdick_murphy
p1597
I77672
sVtrevor_ariza
p1598
I2772
sVanthony_tolliver
p1599
I201229
sVterry_cummings
p1600
I187
sVodie_spears
p1601
I78225
sVjoel_embiid
p1602
I203954
sVgary_neal
p1603
I202390
sVpetey_rosenberg
p1604
I78017
sVjarell_eddie
p1605
I204067
sVbobby_brown
p1606
I201628
sVisiah_thomas
p1607
I78318
sVnick_collison
p1608
I2555
sVglenn_mcdonald
p1609
I77525
sVdaniel_ewing
p1610
I101137
sVeddie_hughes
p1611
I77077
sVrod_thorn
p1612
I78335
sVstephen_howard
p1613
I1128
sVdick_shrider
p1614
I78141
sVken_norman
p1615
I80
sVanthony_parker
p1616
I1515
sVramon_sessions
p1617
I201196
sVjim_bostic
p1618
I76211
sVkevin_murphy
p1619
I203122
sVjoel_kramer
p1620
I77308
sVbob_evans
p1621
I76687
sVmarcus_vinicius
p1622
I200790
sVbo_lamar
p1623
I77330
sVwin_wilfong
p1624
I78529
sVshotgun_hargis
p1625
I76949
sVbobby_hurley
p1626
I310
sVlloyd_daniels
p1627
I1380
sVken_durrett
p1628
I76622
sVrobert_horry
p1629
I109
sVed_searcy
p1630
I78105
sVjordan_adams
p1631
I203919
sVmichael_ansley
p1632
I76050
sVjay_humphries
p1633
I77081
sVbob_brown
p1634
I76284
sVfrank_johnson
p1635
I77146
sVjimmy_darrow
p1636
I76511
sVrich_niemann
p1637
I77716
sVdonny_marshall
p1638
I681
sVtodd_macculloch
p1639
I1928
sVira_bowman
p1640
I1085
sVscott_roth
p1641
I78022
sVrondae_hollis-jefferson
p1642
I1626178
sVjohnny_bach
p1643
I76080
sVchristian_wood
p1644
I1626174
sVandy_panko
p1645
I1950
sVtony_parker
p1646
I2225
sVmarcus_banks
p1647
I2556
sVdon_putman
p1648
I77891
sVjoe_fabel
p1649
I76690
sVkyrie_irving
p1650
I202681
sVpaul_westphal
p1651
I78500
sVearl_shannon
p1652
I78123
sVgaylon_nickerson
p1653
I1093
sVroyal_ivey
p1654
I2767
sVbill_laimbeer
p1655
I100263
sVblinky_peterson
p1656
I77843
sVsasha_kaun
p1657
I201619
sVsmush_parker
p1658
I2470
sVred_morrison
p1659
I77648
sVbrandon_davies
p1660
I203561
sVpaul_mokeski
p1661
I77623
sValaa_abdelnaby
p1662
I76001
sVreggie_theus
p1663
I78310
sVcookie_cook
p1664
I76438
sVsteffond_johnson
p1665
I77166
sVlasalle_thompson
p1666
I78
sVarchie_clark
p1667
I76397
sVpatrick_beverley
p1668
I201976
sVtoby_bailey
p1669
I1753
sVswede_halbrook
p1670
I76919
sVbrady_walker
p1671
I78434
sVrichard_coffey
p1672
I76410
sVjames_ennis
p1673
I203516
sVwardell_jackson
p1674
I77111
sVmccoy_mclemore
p1675
I77548
sVfred_carter
p1676
I76356
sVralph_ogden
p1677
I77748
sVgeorge_t_johnson
p1678
I77149
sVcj_watson
p1679
I201228
sVed_fleming
p1680
I76723
sVsarunas_marciulionis
p1681
I36
sVchris_mccullough
p1682
I1626191
sVwoody_sauldsberry
p1683
I78064
sVanthony_brown
p1684
I1626148
sVnorm_cook
p1685
I76437
sVbill_roberts
p1686
I77979
sVbob_hopkins
p1687
I77052
sVanthony_bonner
p1688
I41
sVhorse_kauffman
p1689
I77227
sVhal_uplinger
p1690
I78393
sVryan_robertson
p1691
I1926
sVjim_mcilvaine
p1692
I29
sVcorie_blount
p1693
I916
sVadonis_thomas
p1694
I203519
sVcedrick_hordges
p1695
I77056
sVadonis_jordan
p1696
I1817
sVtyrus_thomas
p1697
I200748
sVjackie_dinkins
p1698
I76575
sVrichard_dumas
p1699
I30
sVcj_wilcox
p1700
I203912
sVjojo_white
p1701
I78510
sVjason_caffey
p1702
I679
sVherb_williams
p1703
I1006
sVjohn_coker
p1704
I715
sVjim_owens
p1705
I77784
sVchuck_connors
p1706
I76432
sVdon_henriksen
p1707
I76999
sVdupp_john_wetzel
p1708
I78501
sVkurt_thomas
p1709
I703
sVzeke_sinicola
p1710
I78163
sValvin_robertson
p1711
I926
sVskippy_whitaker
p1712
I78506
sVpape_sow
p1713
I2776
sVderrick_byars
p1714
I201182
sVbart_kofoed
p1715
I77294
sVanthony_bowie
p1716
I194
sVkarl-anthony_towns
p1717
I1626157
sVwayne_sappleton
p1718
I78062
sVjoe_young
p1719
I1626202
sVnick_johnson
p1720
I203910
sVbuddy_jeannette
p1721
I77125
sVed_leede
p1722
I77366
sVsam_perkins
p1723
I64
sVralph_sampson
p1724
I78055
sVuwe_blab
p1725
I76172
sVdante_exum
p1726
I203957
sVchanning_frye
p1727
I101112
sVmarcus_landry
p1728
I202068
sVjohn_wallace
p1729
I961
sVwang_zhizhi
p1730
I1917
sVrolando_ferreira
p1731
I76709
sVsherell_ford
p1732
I726
sVbill_closs
p1733
I76406
sVrod_freeman
p1734
I76756
sValec_kessler
p1735
I77251
sVphil_jordon
p1736
I77210
sVbob_carrington
p1737
I76352
sVjerry_reynolds
p1738
I77946
sVjuaquin_hawkins
p1739
I1038
sVgar_heard
p1740
I76985
sVjulius_nwosu
p1741
I1022
sVjosh_smith
p1742
I2746
sVrandy_white
p1743
I1839
sVwillie_williams
p1744
I78574
sVtim_duncan
p1745
I1495
sVvern_gardner
p1746
I76779
sVaw_holt
p1747
I77046
sVmike_taylor
p1748
I201446
sVbones_mckinney
p1749
I77546
sVstephen_bardo
p1750
I76097
sVted_luckenbill
p1751
I77421
sVbrad_daugherty
p1752
I921
sVtiago_splitter
p1753
I201168
sVtom_riker
p1754
I77960
sVjay_taylor
p1755
I78297
sVkeith_edmonson
p1756
I76638
sVmichael_anderson
p1757
I76042
sVkenny_hasbrouck
p1758
I202238
sVkeon_clark
p1759
I1721
sVkermit_washington
p1760
I78467
sVbobby_jones
p1761
I77193
sVfat_lever
p1762
I77376
sVisaiah_canaan
p1763
I203477
sVmarcus_fizer
p1764
I2033
sVmorris_peterson
p1765
I2050
sVcraig_hodges
p1766
I77034
sVlou_roe
p1767
I691
sVsteven_hunter
p1768
I2212
sVjeryl_sasser
p1769
I2219
sVbrad_sellers
p1770
I78110
sVluis_montero
p1771
I1626242
sVbill_mlkvy
p1772
I77619
sVandy_o'donnell
p1773
I77746
sVjamal_sampson
p1774
I2441
sVjustise_winslow
p1775
I1626159
sVcurtis_jerrells
p1776
I201998
sVnate_huffman
p1777
I1572
sVdeb_smith
p1778
I78182
sVtoni_kukoc
p1779
I389
sVhawk_hawkins
p1780
I76972
sVcharles_obannon
p1781
I1525
sVgus_williams
p1782
I78549
sVtom_sewell
p1783
I78116
sVscott_burrell
p1784
I197
sVaaron_williams
p1785
I1425
sVdonald_royal
p1786
I140
sVkyle_oquinn
p1787
I203124
sVguy_rucker
p1788
I2462
sVtravis_outlaw
p1789
I2566
sVrussell_lee
p1790
I77365
sVrichard_anderson
p1791
I76045
sVfred_vinson
p1792
I1844
sVirv_rothenberg
p1793
I78023
sVyuta_tabuse
p1794
I2657
sVxavier_mcdaniel
p1795
I1365
sVfrancisco_garcia
p1796
I101128
sVkyle_lowry
p1797
I200768
sVed_pinckney
p1798
I291
sVgiannis_antetokounmpo
p1799
I203507
sVsteve_scheffler
p1800
I88
sVwayne_kreklow
p1801
I77312
sVgale_bishop
p1802
I76171
sVmike_flynn
p1803
I76727
sVmike_sweetney
p1804
I2552
sVdanny_finn
p1805
I76717
sVjerian_grant
p1806
I1626170
sVgerald_wallace
p1807
I2222
sVed_manning
p1808
I77454
sVvern_hatton
p1809
I76969
sVjim_mooney
p1810
I77631
sVrussell_cross
p1811
I76478
sVandy_duncan
p1812
I76615
sVhank_dezonie
p1813
I76562
sVmurray_mitchell
p1814
I77616
sVshayne_whittington
p1815
I203963
sVdoc_vandeweghe
p1816
I78405
sVterry_porter
p1817
I345
sVdj_augustin
p1818
I201571
sVlarry_fogle
p1819
I76728
sVloy_petersen
p1820
I77840
sVwibs_kautz
p1821
I77228
sVhal_greer
p1822
I76882
sVnate_wolters
p1823
I203489
sVtom_callahan
p1824
I76333
sVdick_hemric
p1825
I76989
sVkevin_williams
p1826
I78556
sVdevin_harris
p1827
I2734
sVjustin_williams
p1828
I200818
sVcorey_crowder
p1829
I76482
sVpete_williams
p1830
I78566
sVdonnie_butcher
p1831
I76318
sVsam_cassell
p1832
I208
sVbubbles_hawkins
p1833
I76975
sVtony_allen
p1834
I2754
sVjohn_iii_lucas
p1835
I101249
sVprimoz_brezec
p1836
I2056
sVhoward_wood
p1837
I78609
sVmirsad_turkcan
p1838
I1726
sVlance_allred
p1839
I200984
sVnick_van_exel
p1840
I89
sVmickey_johnson
p1841
I77168
sVbarry_sumpter
p1842
I78654
sVdoug_sims
p1843
I78159
sVjerry_eaves
p1844
I76632
sVbucky_bockhorn
p1845
I76191
sVallen_iverson
p1846
I947
sVstretch_brown
p1847
I76278
sVeuropelive
p1848
I2565
sVcarlos_clark
p1849
I76398
sVlarry_johnson
p1850
I913
sVmike_riordan
p1851
I77966
sVbob_elliott
p1852
I76656
sVraymond_felton
p1853
I101109
sVtogo_palazzi
p1854
I77791
sVisaac_fontaine
p1855
I1829
sVken_corley
p1856
I76451
sVandre_mccarter
p1857
I77504
sVjayson_williams
p1858
I420
sVjared_jeffries
p1859
I2407
sVcal_ramsey
p1860
I77906
sVkevin_lynch
p1861
I77426
sVedgar_jones
p1862
I77184
sVshawn_bradley
p1863
I762
sVmaurice_harkless
p1864
I203090
sVjake_jones
p1865
I77185
sVandre_brown
p1866
I2810
sVtony_wroten
p1867
I203100
sVdamon_stoudamire
p1868
I757
sVgal_mekel
p1869
I203539
sVblake_ahearn
p1870
I201336
sVscott_wedman
p1871
I78482
sVgreg_smith
p1872
I202962
sVbud_koper
p1873
I77299
sVjosh_powell
p1874
I2694
sVkevin_durant
p1875
I201142
sVjan_van_breda_kolff
p1876
I78400
sVgary_melchionni
p1877
I77575
sVsergei_monia
p1878
I2752
sVlarry_steele
p1879
I78245
sVricky_rubio
p1880
I201937
sVdave_cowens
p1881
I76462
sVmiles_plumlee
p1882
I203101
sVthomas_jordan
p1883
I77208
sVroy_hinson
p1884
I77030
sVbrian_cardinal
p1885
I2073
sVmarcus_haislip
p1886
I2409
sVnikola_pekovic
p1887
I201593
sVron_davis
p1888
I76534
sVgreg_hyder
p1889
I77091
sVjohn_thompson
p1890
I78328
sVmark_workman
p1891
I78616
sVben_goldfaden
p1892
I76829
sVdonell_taylor
p1893
I101182
sVvincenzo_esposito
p1894
I76683
sVgeorge_yardley
p1895
I78628
sVrick_brunson
p1896
I1594
sVdavid_lee
p1897
I101135
sVed_obannon
p1898
I709
sVmarcus_liberty
p1899
I77386
sVmel_payton
p1900
I77824
sVdavid_robinson
p1901
I764
sVbyron_dinkins
p1902
I76574
sVpaul_pierce
p1903
I1718
sVrobert_covington
p1904
I203496
sVdelonte_west
p1905
I2753
sVdan_king
p1906
I77266
sVkenny_carr
p1907
I76350
sVchristian_eyenga
p1908
I201963
sVigor_rakocevic
p1909
I2080
sVtrenton_hassell
p1910
I2239
sVcarlos_delfino
p1911
I2568
sVdavid_vanterpool
p1912
I2128
sVandre_drummond
p1913
I203083
sVjeff_adrien
p1914
I202399
sVtim_kempton
p1915
I1118
sVlew_hitch
p1916
I77032
sVwayman_britt
p1917
I76259
sVjohnny_jones
p1918
I77187
sVjosh_akognon
p1919
I203006
sVkelly_olynyk
p1920
I203482
sVmuggsy_bogues
p1921
I177
sVjohn_havlicek
p1922
I76970
sVcurtis_kitchen
p1923
I77280
sVandrew_nicholson
p1924
I203094
sVgreg_foster
p1925
I323
sVkevin_porter
p1926
I77876
sVbranden_dawson
p1927
I1626183
sVjerome_whitehead
p1928
I78516
sVdupp_dave_wohl
p1929
I78606
sVbingo_smith
p1930
I78202
sVgorham_getchell
p1931
I76805
sVterry_davis
p1932
I426
sVray_wertis
p1933
I78494
sVal_negratti
p1934
I77698
sVbob_portman
p1935
I77878
sVlars_hansen
p1936
I76941
sVpaul_nolen
p1937
I77725
sVjerry_chambers
p1938
I76376
sVjack_kerris
p1939
I77249
sValton_lister
p1940
I175
sVjerome_moiso
p1941
I2040
sVjim_fritsche
p1942
I76760
sVsergio_rodriguez
p1943
I200771
sVrich_johnson
p1944
I77164
sVlarry_costello
p1945
I76454
sVnorman_black
p1946
I76174
sVnick_shaback
p1947
I78118
sVdominic_mcguire
p1948
I201187
sVmichael_jackson
p1949
I77104
sVomar_cook
p1950
I2241
sVscott_haskin
p1951
I321
sVlarry_comley
p1952
I76427
sVratko_varda
p1953
I2237
sVviacheslav_kravtsov
p1954
I203139
sVgreg_stokes
p1955
I78264
sVderek_harper
p1956
I157
sVwalker_russell
p1957
I201041
sVhouse_jones
p1958
I77192
sVhooks_dillon
p1959
I76571
sVjames_silas
p1960
I78150
sVkenny_thomas
p1961
I1903
sVjoe_kopicki
p1962
I77300
sVjackie_butler
p1963
I2866
sVjoe_harris
p1964
I203925
sVjeff_cook
p1965
I76436
sVdarrell_griffith
p1966
I76890
sValan_hardy
p1967
I76947
sVjon_leuer
p1968
I202720
sVal_cervi
p1969
I76373
sVoliver_robinson
p1970
I77994
sVmike_evans
p1971
I76686
sVbill_garnett
p1972
I76785
sVmike_bloom
p1973
I76188
sVal_brightman
p1974
I76254
sVrick_weitzman
p1975
I78486
sVcarlos_rogers
p1976
I435
sVeasy_parham
p1977
I77797
sVjames_earl_ray
p1978
I77920
sVtom_boswell
p1979
I76213
sVchris_kaman
p1980
I2549
sVwalter_bond
p1981
I1603
sVwayne_simien
p1982
I101134
sVgrady_lewis
p1983
I77381
sVcleo_hill
p1984
I77025
sVal-farouq_aminu
p1985
I202329
sVsteve_kuberski
p1986
I77316
sVbutch_graves
p1987
I76855
sVjamaal_magloire
p1988
I2048
sVgrant_long
p1989
I3
sVmichael_redd
p1990
I2072
sVbilly_kenville
p1991
I77247
sVtom_piotrowski
p1992
I77863
sVmatt_geiger
p1993
I761
sVcrow-bar_crow
p1994
I76481
sVmyron_brown
p1995
I76277
sVjared_sullinger
p1996
I203096
sVjason_terry
p1997
I1891
sVwillie_smith
p1998
I78208
sVbilly_donovan
p1999
I76586
sVjohn_mccullough
p2000
I77520
sVjim_seminoff
p2001
I78114
sVloy_vaught
p2002
I919
sVcharlie_tyra
p2003
I78391
sVjames_collins
p2004
I1530
sVron_rowan
p2005
I78027
sVkeith_smart
p2006
I78175
sVgeorge_lee
p2007
I77359
sVrandolph_childress
p2008
I719
sVotto_moore
p2009
I77636
sVpaul_napolitano
p2010
I77686
sVsean_colson
p2011
I2173
sVbrian_davis
p2012
I76517
sVjerome_kersey
p2013
I760
sVdick_schnittker
p2014
I78086
sVlonnie_shelton
p2015
I78133
sVjack_burmaster
p2016
I76306
sVtom_gola
p2017
I76828
sVderrick_chievous
p2018
I76387
sValex_blackwell
p2019
I76180
sVjohn_coughran
p2020
I76457
sVrafael_addison
p2021
I912
sVderrick_coleman
p2022
I934
sVkenny_williams
p2023
I78555
sVkennard_winchester
p2024
I78589
sVdamien_wilkins
p2025
I2863
sVtodd_lichti
p2026
I77387
sVbrad_lohaus
p2027
I38
sVdonte_greene
p2028
I201590
sVkentavious_caldwell-pope
p2029
I203484
sVcliff_hagan
p2030
I76912
sVjohn_hazen
p2031
I76982
sVdevean_george
p2032
I1904
sVricky_davis
p2033
I1729
sVscott_williams
p2034
I281
sVmichael_hawkins
p2035
I1138
sVryan_gomes
p2036
I101155
sVavery_johnson
p2037
I422
sVdewayne_dedmon
p2038
I203473
sVdj_strawberry
p2039
I201199
sVmontrezl_harrell
p2040
I1626149
sVaubrey_davis
p2041
I76515
sVanthony_avent
p2042
I138
sVeddie_house
p2043
I2067
sVdon_chaney
p2044
I76379
sVkevin_henderson
p2045
I76994
sVsteve_nash
p2046
I959
sVjeff_trepagnier
p2047
I2244
sVxavier_henry
p2048
I202333
sVdennis_duval
p2049
I76623
sVjerryd_bayless
p2050
I201573
sVmichael_dickerson
p2051
I1722
sVkiki_vandeweghe
p2052
I78404
sVzydrunas_ilgauskas
p2053
I980
sVbob_lochmueller
p2054
I77397
sVstephane_lasme
p2055
I201186
sVwayne_turner
p2056
I1943
sVpaul_millsap
p2057
I200794
sVtrevor_wilson
p2058
I1027
sVluke_harangody
p2059
I202376
sVjack_george
p2060
I76800
sVbrian_skinner
p2061
I1730
sVlavoy_allen
p2062
I202730
sVwally_rank
p2063
I77910
sVbob_rose
p2064
I78016
sVwalt_frazier
p2065
I76750
sVbenoit_benjamin
p2066
I104
sVisaiah_morris
p2067
I77647
sVmarcin_gortat
p2068
I101162
sVmark_acres
p2069
I76009
sVhorace_grant
p2070
I270
sVterry_catledge
p2071
I767
sVmarcus_webb
p2072
I78478
sVeric_gordon
p2073
I201569
sVtravis_williams
p2074
I1576
sVrichard_morton
p2075
I77652
sVjamal_crawford
p2076
I2037
sVbobby_smith
p2077
I78203
sVlindsey_hunter
p2078
I283
sVworld_b_free
p2079
I76753
sVwalter_palmer
p2080
I77794
sVeddie_johnson
p2081
I77144
sVrich_kelley
p2082
I77235
sVrashard_lewis
p2083
I1740
sVanthony_roberson
p2084
I101194
sVozell_jones
p2085
I77191
sVbob_brannum
p2086
I76238
sVivan_johnson
p2087
I201274
sVgordon_hayward
p2088
I202330
sVmal_mcmullan
p2089
I77556
sVsteve_hawes
p2090
I76971
sVmatt_othick
p2091
I77777
sVjo_jo_english
p2092
I76676
sVbob_lavoy
p2093
I77347
sVtim_legler
p2094
I100
sVshaun_livingston
p2095
I2733
sVgary_harris
p2096
I203914
sVkyle_singler
p2097
I202713
sVvictor_oladipo
p2098
I203506
sVledell_eackles
p2099
I289
sVetwaun_moore
p2100
I202734
sVvitaly_potapenko
p2101
I958
sVpredrag_drobnjak
p2102
I1542
sVhowie_carl
p2103
I76340
sVjohnny_rogers
p2104
I78007
sVsteve_johnson
p2105
I77134
sVthegem_haskins
p2106
I76965
sVaustin_rivers
p2107
I203085
sVharvey_catchings
p2108
I76365
sValvin_scott
p2109
I78095
sVtyler_hansbrough
p2110
I201946
sVwillie_solomon
p2111
I2226
sVtommy_kron
p2112
I77313
sVpeter_ramos
p2113
I2762
sVdc_wilcutt
p2114
I78525
sVdick_bunt
p2115
I76301
sVrickey_williams
p2116
I78563
sVanthony_frederick
p2117
I76752
sVrichard_washington
p2118
I78468
sVlarry_wright
p2119
I78623
sVdick_holub
p2120
I77048
sVreggie_evans
p2121
I2501
sVbob_davies
p2122
I76514
sVmitch_richmond
p2123
I782
sVlee_johnson
p2124
I77158
sVfreeman_williams
p2125
I78548
sVjavale_mcgee
p2126
I201580
sVnene
p2127
I2403
sVjason_thompson
p2128
I201574
sVbob_mcneill
p2129
I77562
sVanderson_varejao
p2130
I2760
sVdick_fitzgerald
p2131
I76719
sVfrank_schade
p2132
I78069
sVterrel_harris
p2133
I202227
sVcliff_alexander
p2134
I1626146
sVjoby_wright
p2135
I78622
sVjose_slaughter
p2136
I78172
sVjason_collins
p2137
I2215
sVmaurice_williams
p2138
I2590
sVjeremy_lin
p2139
I202391
sVmichael_young
p2140
I78634
sVbutch_carter
p2141
I76355
sVstan_noszka
p2142
I77735
sVbostjan_nachbar
p2143
I2411
sVbilly_gabor
p2144
I76768
sVzarko_cabarkapa
p2145
I2560
sVchris_duhon
p2146
I2768
sVaj_james
p2147
I77115
sVchris_bosh
p2148
I2547
sVgeorge_mccloud
p2149
I45
sVjohan_petro
p2150
I101130
sVjim_baechtold
p2151
I76081
sVphil_chenier
p2152
I76386
sVstanley_roberts
p2153
I914
sVreggie_johnson
p2154
I77163
sVdon_bielke
p2155
I76164
sVjoe_arlauckas
p2156
I76057
sVbrad_wright
p2157
I78620
sVmarshon_brooks
p2158
I202705
sVlou_amundson
p2159
I200811
sVserge_ibaka
p2160
I201586
sVmarty_conlon
p2161
I55
sVkris_joseph
p2162
I203126
sVtroy_hudson
p2163
I1607
sVjonathon_simmons
p2164
I203613
sVervin_johnson
p2165
I911
sVmoe_murphy
p2166
I77671
sVboban_marjanovic
p2167
I1626246
sVjimmer_fredette
p2168
I202690
sVjermaine_taylor
p2169
I201966
sVreece_gaines
p2170
I2558
sVpepe_sanchez
p2171
I2143
sVwalter_mccarty
p2172
I962
sVchris_jent
p2173
I1137
sVlarry_krystkowiak
p2174
I1474
sVadam_morrison
p2175
I200747
sVmatt_bullard
p2176
I672
sVbernard_toone
p2177
I78356
sVjack_hewson
p2178
I77014
sVray_ragelis
p2179
I77902
sVharrison_barnes
p2180
I203084
sVstan_mckenzie
p2181
I77543
sVryan_j_anderson
p2182
I201583
sVrob_rensberger
p2183
I77942
sVjamie_watson
p2184
I320
sVharold_keeling
p2185
I77233
sVkenny_walker
p2186
I78440
sVgene_vance
p2187
I78402
sVclaude_english
p2188
I76674
sVdave_batton
p2189
I76124
sVbuddy_o'grady
p2190
I77750
sVjorge_gutierrez
p2191
I203268
sVdave_scholz
p2192
I78088
sVernie_beck
p2193
I76136
sVeddie_jones
p2194
I224
sVking_lear
p2195
I77352
sVal_harrington
p2196
I1733
sVred_wallace
p2197
I78443
sVnerlens_noel
p2198
I203457
sVwesley_person
p2199
I445
sVlamar_patterson
p2200
I203934
sVclint_richardson
p2201
I77950
sVtravis_knight
p2202
I969
sVfatty_taylor
p2203
I78302
sVchuck_mencel
p2204
I77579
sVdemarcus_nelson
p2205
I201634
sVelliot_williams
p2206
I202343
sVlawrence_moten
p2207
I734
sVallan_bristow
p2208
I76257
sVjamaal_franklin
p2209
I203479
sVray_scott
p2210
I78100
sVjames_donaldson
p2211
I76583
sVjustin_anderson
p2212
I1626147
sVcharlie_villanueva
p2213
I101111
sVhank_lefkowitz
p2214
I77367
sValando_tucker
p2215
I201169
sVcraig_dykema
p2216
I76625
sVtyrone_corbin
p2217
I895
sVwillie_burton
p2218
I416
sVtony_white
p2219
I78514
sVed_burton
p2220
I76314
sVgreg_bunch
p2221
I76300
sVmike_peplowski
p2222
I46
sVken_charles
p2223
I76383
sVnenad_krstic
p2224
I2420
sVtony_zeno
p2225
I78643
sVjim_washington
p2226
I78466
sVrasual_butler
p2227
I2446
sVtom_owens
p2228
I77786
sVedmund_sherod
p2229
I78136
sVbigjohn_pritchard
p2230
I77887
sVles_jepsen
p2231
I77129
sVanthony_bennett
p2232
I203461
sVpj_tucker
p2233
I200782
sVjosh_mcroberts
p2234
I201177
sVmilt_williams
p2235
I78560
sVluke_walton
p2236
I2575
sVchristapher_johnson
p2237
I203187
sVfrancisco_elson
p2238
I1922
sVwayne_robinson
p2239
I77996
sVmike_dunleavy_sr
p2240
I76616
sVjim_barnett
p2241
I76106
sVmark_pope
p2242
I998
sVmark_strickland
p2243
I1110
sVtyler_honeycutt
p2244
I202715
sVearl_dodd
p2245
I76580
sVward_williams
p2246
I78573
sVwill_conroy
p2247
I101215
sVhanno_mottola
p2248
I2069
sVlarry_foust
p2249
I76744
sVshawnelle_scott
p2250
I1035
sVangles_menke
p2251
I77581
sVtony_jackson
p2252
I77100
sVray_corley
p2253
I76452
sVtheron_smith
p2254
I2604
sVjim_smith
p2255
I78191
sVbill_mayfield
p2256
I77495
sVtony_gaffney
p2257
I202070
sVtrent_tucker
p2258
I78375
sVkwame_brown
p2259
I2198
sVeric_bledsoe
p2260
I202339
sValec_burks
p2261
I202692
sVjeff_sheppard
p2262
I1852
sVjim_price
p2263
I77883
sVbilly_owens
p2264
I182
sVdavid_cooke
p2265
I76439
sVjabari_parker
p2266
I203953
sVcampy_russell
p2267
I78047
sVsergey_karasev
p2268
I203508
sVpaul_thompson
p2269
I78332
sVjonathan_kerner
p2270
I1801
sVcharlie_ward
p2271
I369
sVangelo_musi
p2272
I77677
sVluis_scola
p2273
I2449
sVkenny_higgs
p2274
I77021
sVtarik_black
p2275
I204028
sVdanilo_gallinari
p2276
I201568
sVmatt_bonner
p2277
I2588
sVjohnny_obryant
p2278
I203948
sVruben_nembhard
p2279
I1129
sVcurtis_perry
p2280
I77835
sVrandy_livingston
p2281
I988
sVrenaldo_balkman
p2282
I200764
sVdave_gunther
p2283
I76906
sVdwight_jones
p2284
I77182
sVjohn_williamson
p2285
I78575
sVwally_walker
p2286
I78442
sVtree_rollins
p2287
I78014
sVeddie_mast
p2288
I77483
sVjunior_kirk
p2289
I77278
sVstu_lantz
p2290
I77338
sVpete_darcey
p2291
I76506
sVeugene_jeter
p2292
I200817
sVsteve_kerr
p2293
I70
sVduane_cooper
p2294
I1030
sVpress_maravich
p2295
I77458
sVwalt_bellamy
p2296
I76144
sVshabazz_napier
p2297
I203894
sVdoug_west
p2298
I28
sVcarl_mcnulty
p2299
I77563
sVvincent_yarbrough
p2300
I2428
sVjohnny_simmons
p2301
I78154
sVbo_erias
p2302
I76679
sVed_smith
p2303
I78187
sVjohnny_ezersky
p2304
I76689
sVed_mikan
p2305
I77590
sVkelly_tripucka
p2306
I78369
sVjeff_wilkins
p2307
I78537
sVevers_burns
p2308
I76308
sVmarv_roberts
p2309
I77978
sVbeno_udrih
p2310
I2757
sVrenaldo_major
p2311
I200970
sVrod_strickland
p2312
I393
sVmel_daniels
p2313
I76502
sVlynn_greer
p2314
I2696
sVjamie_waller
p2315
I78445
sVvester_marshall
p2316
I77468
sVdaniel_orton
p2317
I202350
sVthehill_mcgill
p2318
I77531
sVdupp_ken_johnson
p2319
I77154
sVandy_phillip
p2320
I77853
sVoscar_torres
p2321
I2351
sVdevin_ebanks
p2322
I202365
sVdj_kennedy
p2323
I202810
sVclyde_mayes
p2324
I77492
sVterry_dehere
p2325
I143
sVjohnny_davis
p2326
I76526
sVgeorge_trapp
p2327
I78366
sVbunny_wilson
p2328
I78580
sVderrick_mckey
p2329
I365
sVtravis_diener
p2330
I101143
sVray_ellefson
p2331
I76655
sVdevin_booker
p2332
I1626164
sVmoose_boryla
p2333
I76210
sVgregory_butler
p2334
I76320
sVjohn_lambert
p2335
I77331
sVpaul_cloyd
p2336
I76407
sVwarren_kidd
p2337
I77254
sVbryon_russell
p2338
I935
sVbilly_thompson
p2339
I1631
sVrichie_regan
p2340
I77932
sVron_bonham
p2341
I76201
sVscott_machado
p2342
I203159
sVbismack_biyombo
p2343
I202687
sVleon_blevins
p2344
I76186
sVron_sobie
p2345
I78216
sVjoe_buckhalter
p2346
I76293
sVmehmet_okur
p2347
I2246
sVlukey_lucas
p2348
I77417
sVdon_hanrahan
p2349
I76938
sVmitchell_butler
p2350
I348
sVjerami_grant
p2351
I203924
sVgeorge_nostrand
p2352
I77734
sVdonald_hodge
p2353
I1106
sVthaddeus_young
p2354
I201152
sVmeyers_leonard
p2355
I203086
sVwalter_sharpe
p2356
I201594
sVbob_nash
p2357
I77688
sVrodney_carney
p2358
I200760
sVgerry_ward
p2359
I78455
sVwilson_chandler
p2360
I201163
sVantonio_daniels
p2361
I1498
sVcorny_thompson
p2362
I78325
sVwalt_lautenbach
p2363
I77345
sVblake_griffin
p2364
I201933
sVjim_petersen
p2365
I77839
sVjerome_beasley
p2366
I2602
sValex_acker
p2367
I101165
sVderon_williams
p2368
I101114
sVbruce_kuczenski
p2369
I77318
sVjake_weber
p2370
I78479
sVlionel_chalmers
p2371
I2763
sVklay_thompson
p2372
I202691
sVelmo_morgenthaler
p2373
I77642
sVanthony_morrow
p2374
I201627
sVlarry_sykes
p2375
I1132
sVnoah_vonleh
p2376
I203943
sVlarry_nance
p2377
I1626204
sVshea_seals
p2378
I1578
sVeric_murdock
p2379
I785
sVed_stokes
p2380
I1055
sVgary_alexander
p2381
I76022
sVbrandon_armstrong
p2382
I2220
sVderek_hood
p2383
I1967
sVphil_hicks
p2384
I77017
sVapples_kudelka
p2385
I77319
sVred_meinhold
p2386
I77574
sVime_udoka
p2387
I2137
sVchase_budinger
p2388
I201978
sVtarence_kinsey
p2389
I200814
sVduje_dukan
p2390
I1626251
sVjohn_lucas
p2391
I77419
sVdevin_green
p2392
I101209
sVjoe_courtney
p2393
I1432
sVben_poquette
p2394
I77873
sVdiante_garrett
p2395
I203197
sVmychal_thompson
p2396
I78331
sVmamadou_ndiaye
p2397
I2055
sVray_ramsey
p2398
I77908
sVjohnny_norlander
p2399
I77728
sVjoey_graham
p2400
I101121
sVchris_wilcox
p2401
I2404
sVgeorge_thompson
p2402
I78327
sVdarington_hobson
p2403
I202359
sVjohn_vallely
p2404
I78397
sVfrank_reddout
p2405
I77925
sVnick_jones
p2406
I77195
sVfred_hetzel
p2407
I77012
sVaaron_harrison
p2408
I1626151
sVcarlos_terry
p2409
I78307
sVowen_wells
p2410
I78488
sVjohn_pinone
p2411
I77861
sValan_sawyer
p2412
I78067
sVricky_grace
p2413
I76839
sVmelvin_newbern
p2414
I1116
sVjerry_rullo
p2415
I78043
sVcraig_neal
p2416
I77694
sVlinas_kleiza
p2417
I101132
sVlen_kosmalski
p2418
I77302
sVdionte_christmas
p2419
I202091
sVirv_torgoff
p2420
I78357
sVbuck_sydnor
p2421
I78287
sVgene_banks
p2422
I76093
sVcasper_ware
p2423
I203810
sVryan_bowen
p2424
I1763
sVchris_childs
p2425
I164
sVdarren_morningstar
p2426
I77644
sVdupp_doug_collins
p2427
I76421
sVben_kelso
p2428
I77240
sVelvin_hayes
p2429
I76979
sVhouby_houbregs
p2430
I77062
sVterry_teagle
p2431
I78304
sVglenn_mosley
p2432
I77653
sVdoug_christie
p2433
I57
sVjim_pollard
p2434
I77867
sVrichard_laurel
p2435
I77344
sVeric_williams
p2436
I677
sVsalim_stoudamire
p2437
I101136
sVernie_digregorio
p2438
I76568
sVtex_ritter
p2439
I77968
sVjoe_strawder
p2440
I78268
sVpops_mensah-bonsu
p2441
I200822
sVernie_calverley
p2442
I76335
sVyinka_dare
p2443
I212
sVgreg_jackson
p2444
I77101
sValvin_heggs
p2445
I76987
sVarmon_johnson
p2446
I202356
sVcrash_mengelt
p2447
I77580
sVxavier_silas
p2448
I202918
sVdemarco_johnson
p2449
I1746
sVbrandan_wright
p2450
I201148
sVrory_white
p2451
I78512
sVjack_cotton
p2452
I76456
sVchuck_cooper
p2453
I76442
sVotis_thorpe
p2454
I901
sVmichael_jordan
p2455
I893
sVharold_johnson
p2456
I77151
sVhakeem_olajuwon
p2457
I165
sVgeno_carlisle
p2458
I2367
sValvan_adams
p2459
I76011
sVandre_spencer
p2460
I78227
sVbrevin_knight
p2461
I1510
sVcarl_braun
p2462
I76243
sVrex_morgan
p2463
I77641
sVwayne_cooper
p2464
I76441
sVjack_cooley
p2465
I204022
sVaskia_jones
p2466
I77174
sVjeremy_richardson
p2467
I200978
sVsylvester_gray
p2468
I76862
sVbill_smith
p2469
I78207
sVjack_phelan
p2470
I77850
sVkyle_macy
p2471
I77438
sVjason_lawson
p2472
I1535
sVdonnie_boyce
p2473
I671
sVharry_davis
p2474
I76523
sVtellis_frank
p2475
I76748
sVmatt_steigenga
p2476
I1099
sVkyrylo_fesenko
p2477
I201178
sVyi_jianlian
p2478
I201146
sVluc_longley
p2479
I26
sVgeorge_senesky
p2480
I78115
sVdon_kojis
p2481
I77295
sVricky_sobers
p2482
I78215
sVjohn_drew
p2483
I76598
sVkevin_willis
p2484
I788
sVanthony_carter
p2485
I1853
sVrudy_hackett
p2486
I76910
sVred_owens
p2487
I77783
sVgeorge_pastushok
p2488
I77807
sVhorace_walker
p2489
I78438
sVwyndol_gray
p2490
I76863
sVlionel_malamed
p2491
I77447
sVgene_gillette
p2492
I76813
sVmarc_gasol
p2493
I201188
sVsam_stith
p2494
I78259
sVgary_hill
p2495
I77026
sVbob_duffy
p2496
I76610
sVguillermo_diaz
p2497
I200799
sVhoward_carter
p2498
I76358
sVtyus_edney
p2499
I721
sVnorm_grekin
p2500
I76886
sVshannon_brown
p2501
I200769
sVike_diogu
p2502
I101113
sVfred_brown
p2503
I76272
sVduck_williams
p2504
I78545
sVgeorge_reynolds
p2505
I77945
sVpavel_podkolzine
p2506
I2750
sVray_tolbert
p2507
I78348
sVdick_wehr
p2508
I78483
sVderrick_rowland
p2509
I78030
sVbilly_mckinney
p2510
I77547
sVwoodie_grimshaw
p2511
I76893
sVclyde_lovellette
p2512
I77414
sVdickey_simpkins
p2513
I54
sVbob_weiss
p2514
I78485
sVelijah_millsap
p2515
I202407
sVron_livingstone
p2516
I77392
sVcalbert_cheaney
p2517
I384
sVkevin_burleson
p2518
I101207
sVtwirl_williams
p2519
I78546
sVrickie_winslow
p2520
I1984
sVray_lumpp
p2521
I77425
sVkim_english
p2522
I203119
sVken_johnson
p2523
I2256
sVdarius_washington
p2524
I200827
sVscot_pollard
p2525
I1513
sVbud_grant
p2526
I76850
sVjacky_dorsey
p2527
I76587
sValex_groza
p2528
I76897
sVjohn_wall
p2529
I202322
sVjohnny_high
p2530
I77022
sVthabo_sefolosha
p2531
I200757
sVchris_copeland
p2532
I203142
sVmatt_freije
p2533
I2782
sVgordan_giricek
p2534
I1921
sVandy_tonkovich
p2535
I78353
sVpickles_kennedy
p2536
I77245
sVscott_english
p2537
I76675
sVhowie_jolliff
p2538
I77172
sVbobby_ray_jones
p2539
I200784
sVchet_mcnabb
p2540
I77557
sVcourtney_alexander
p2541
I2042
sVirvin_kiffin
p2542
I77255
sVjim_spanarkel
p2543
I78222
sVsleepy_floyd
p2544
I76726
sVodis_allison
p2545
I76029
sVreggie_carter
p2546
I76360
sVclayton_johnson
p2547
I77135
sVroger_burkman
p2548
I76304
sVjim_palmer
p2549
I77792
sVtrey_gilder
p2550
I201821
sVmarcus_mann
p2551
I986
sVjack_kiley
p2552
I77256
sVed_macauley
p2553
I77429
sVgrasshopper_dudley
p2554
I76607
sVdonyell_marshall
p2555
I923
sVgarret_siler
p2556
I202081
sVrandy_brown
p2557
I753
sVgil_mcgregor
p2558
I77534
sVfred_cofield
p2559
I76411
sVrobert_reid
p2560
I77936
sVavery_bradley
p2561
I202340
sVchris_whitney
p2562
I43
sVmark_mcnamara
p2563
I77558
sVpaul_davis
p2564
I200781
sVarnett_moultrie
p2565
I203102
sVmike_d'antoni
p2566
I76505
sVlazar_hayward
p2567
I202351
sVmo_stokes
p2568
I600016
sVrex_walters
p2569
I777
sVsteve_lingenfelter
p2570
I77389
sVlavor_postell
p2571
I2068
sVchris_mills
p2572
I168
sVjose_ortiz
p2573
I77771
sVwill_frazier
p2574
I76751
sVtito_maddox
p2575
I2432
sVkenny_mcintosh
p2576
I77540
sVandy_toolson
p2577
I342
sVchauncey_billups
p2578
I1497
sVphil_sellers
p2579
I78111
sVlionel_hollins
p2580
I77043
sVeric_leckner
p2581
I287
sVboris_diaw
p2582
I2564
sVjoel_anthony
p2583
I201202
sVkevin_loder
p2584
I77401
sVmarkel_brown
p2585
I203900
sVjiri_welsch
p2586
I2412
sVcliff_levingston
p2587
I77377
sVcody_zeller
p2588
I203469
sVdaequan_cook
p2589
I201161
sVcleveland_buckner
p2590
I76295
sVbill_bolger
p2591
I76196
sVlancaster_gordon
p2592
I76834
sVshaler_halimon
p2593
I76922
sVjoe_bryant
p2594
I76290
sVed_nealy
p2595
I77697
sVron_reed
p2596
I77928
sVcheese_johnson
p2597
I77159
sVal_wood
p2598
I78610
sVhowie_janotta
p2599
I77122
sVbob_hansen
p2600
I76942
sVron_knight
p2601
I77288
sVboniface_ndong
p2602
I101238
sVdyron_nix
p2603
I77720
sVdangelo_russell
p2604
I1626156
sVmike_harper
p2605
I76954
sVsasha_danilovic
p2606
I390
sVrashad_vaughn
p2607
I1626173
sVsam_ranzino
p2608
I77912
sVpat_connaughton
p2609
I1626192
sVdupp_george_karl
p2610
I77223
sVfernando_martin
p2611
I77472
sVharold_pressley
p2612
I77881
sVjohn_starks
p2613
I317
sVcedric_jackson
p2614
I202132
sVjim_loscutoff
p2615
I77409
sVjosh_richardson
p2616
I1626196
sVnorm_van_lier
p2617
I78406
sVdennis_schroder
p2618
I203471
sVmartin_nessley
p2619
I77704
sVglen_gondrezick
p2620
I76830
sVcameron_bairstow
p2621
I203946
sVdontell_jefferson
p2622
I200971
sVpablo_prigioni
p2623
I203143
sVstan_stutz
p2624
I78276
sVjermaine_jackson
p2625
I1983
sVramon_rivas
p2626
I77969
sVmarcus_morris
p2627
I202694
sVkirk_haston
p2628
I2213
sVjim_zoet
p2629
I78647
sVeric_montross
p2630
I376
sVlou_spicer
p2631
I78230
sVjim_holstein
p2632
I77045
sVjohn_williams
p2633
I73
sVjustin_hamilton
p2634
I203120
sVsam_mack
p2635
I694
sVchris_mcnealy
p2636
I77560
sVgeorge_l_johnson
p2637
I77148
sVmarcus_t_thornton
p2638
I201977
sVdick_barnett
p2639
I76107
sVcorey_benjamin
p2640
I1736
sVken_murray
p2641
I77675
sVjoe_pace
p2642
I77788
sVmiroslav_raduljica
p2643
I203545
sVdan_majerle
p2644
I105
sVcarlos_arroyo
p2645
I2306
sVcharlie_parsley
p2646
I77804
sVhowie_komives
p2647
I77297
sVanthony_miller
p2648
I292
sVmark_g_davis
p2649
I76528
sVfred_lacour
p2650
I77327
sVlarry_hennessy
p2651
I76998
sVbobby_wilkerson
p2652
I78531
sVchris_quinn
p2653
I200809
sVdamone_brown
p2654
I2245
sVron_harper
p2655
I166
sVgeorge_lehmann
p2656
I77369
sVralph_lewis
p2657
I77383
sVcorey_brewer
p2658
I201147
sVtyson_chandler
p2659
I2199
sVcharlie_share
p2660
I78125
sVmoochie_norris
p2661
I983
sVbud_olsen
p2662
I77765
sVchris_crawford
p2663
I1544
sVdermie_o'connell
p2664
I77745
sVkendrick_perkins
p2665
I2570
sVjoe_ruklick
p2666
I78040
sVfrank_brickowski
p2667
I783
sVemeka_okafor
p2668
I2731
sVherb_white
p2669
I78508
sVaud_brindley
p2670
I76255
sVstacey_arceneaux
p2671
I76053
sVmatt_maloney
p2672
I1074
sVdick_miller
p2673
I77602
sVearl_clark
p2674
I201947
sVchuckie_williams
p2675
I78541
sVjames_augustine
p2676
I200788
sVscott_may
p2677
I77490
sVcasey_shaw
p2678
I1745
sVal_roges
p2679
I78010
sVetdrick_bohannon
p2680
I1564
sVfrido_frey
p2681
I76757
sVjordan_crawford
p2682
I202348
sVmark_sibley
p2683
I78145
sVharold_ellis
p2684
I1677
sVwill_bynum
p2685
I101198
sVslats_zaslofsky
p2686
I78638
sVcory_alexander
p2687
I724
sVdean_tolson
p2688
I78349
sVronald_murray
p2689
I2436
sVandre_emmett
p2690
I2765
sVgarfield_smith
p2691
I78189
sVzabian_dowdell
p2692
I202220
sVjoel_przybilla
p2693
I2038
sVmike_smith
p2694
I2065
sVirv_bemoras
p2695
I76145
sVkorleone_young
p2696
I1748
sVtony_battie
p2697
I1499
sVgerald_wilkins
p2698
I786
sVearl_evans
p2699
I76685
sVcristiano_felicio
p2700
I1626245
sVcorey_gaines
p2701
I76770
sVsean_higgins
p2702
I925
sVmario_west
p2703
I201238
sVlou_dampier
p2704
I76499
sVtony_smith
p2705
I380
sVgary_suiter
p2706
I78277
sVeddie_jordan
p2707
I77205
sVart_spoelstra
p2708
I78232
sVjim_fox
p2709
I76747
sVray_mccallum
p2710
I203492
sVmaurice_cheeks
p2711
I76385
sVandrea_bargnani
p2712
I200745
sVbritton_johnsen
p2713
I2639
sVkenneth_faried
p2714
I202702
sVawvee_storey
p2715
I2852
sVwesley_matthews
p2716
I202083
sVhutch_jones
p2717
I77203
sVdarrell_elston
p2718
I76667
sVgary_freeman
p2719
I76755
sVfred_christ
p2720
I76393
sVandre_owens
p2721
I101261
sVblaine_denning
p2722
I76557
sVhal_crisler
p2723
I76470
sVbob_wilson
p2724
I78586
sVterrico_white
p2725
I202358
sVhank_beenders
p2726
I76139
sVjustin_harper
p2727
I202712
sVclifford_rozier
p2728
I32
sVbob_naber
p2729
I77681
sVnellie_nelson
p2730
I77700
sVtod_murphy
p2731
I77674
sVdanny_manning
p2732
I330
sVsamaki_walker
p2733
I955
sVlarry_siegfried
p2734
I78147
sVjohn_douglas
p2735
I76589
sVchuck_williams
p2736
I78547
sVgrabbo_graboski
p2737
I76838
sVluke_witte
p2738
I78603
sVpeter_thibeaux
p2739
I78311
sVwes_matthews
p2740
I77484
sVrodney_buford
p2741
I1934
sVron_valentine
p2742
I78396
sVralph_drollinger
p2743
I76604
sVmardy_collins
p2744
I200776
sVdexter_cambridge
p2745
I76337
sVmyles_turner
p2746
I1626167
sVgreg_grant
p2747
I285
sVmel_davis
p2748
I76529
sVmel_bennett
p2749
I76151
sVmatt_mazza
p2750
I77497
sVmike_wilks
p2751
I2366
sVerick_barkley
p2752
I2057
sVallen_murphy
p2753
I77668
sVdana_barros
p2754
I344
sVmatt_zunic
p2755
I78650
sVspud_webb
p2756
I892
sVwalter_davis
p2757
I1453
sVmarquis_daniels
p2758
I2605
sVhenry_ward
p2759
I78456
sVgeoff_petrie
p2760
I77844
sVstephen_thompson
p2761
I78333
sVjeff_foote
p2762
I202880
sVkenyon_martin
p2763
I2030
sVjerome_allen
p2764
I706
sVchuck_noble
p2765
I77722
sVdupp_john_kuester
p2766
I77320
sVgene_berce
p2767
I76155
sVrajon_rondo
p2768
I200765
sVjerry_fowler
p2769
I76745
sVchris_mullin
p2770
I904
sVtheclaw_schnellbacher
p2771
I78085
sVjohnny_mccarthy
p2772
I77506
sVderek_anderson
p2773
I1507
sVdwayne_polee
p2774
I77866
sVtracy_murray
p2775
I145
sVallen_leavell
p2776
I77353
sVcorky_devlin
p2777
I76561
sVjacque_vaughn
p2778
I1521
sVkappy_kaplowitz
p2779
I77221
sVcarl_henry
p2780
I77001
sVcory_jefferson
p2781
I203928
sVjohn_stockton
p2782
I304
sVnorm_mager
p2783
I77441
sVjohn_schweitz
p2784
I78093
sVallie_mcguire
p2785
I77535
sVnorm_swanson
p2786
I78284
sVdennis_scott
p2787
I192
sVmike_holton
p2788
I77047
sVjoe_cooke
p2789
I76440
sVjames_michael_mcadoo
p2790
I203949
sVmike_miller
p2791
I2034
sVvince_taylor
p2792
I78303
sVwesley_cox
p2793
I76465
sVbrian_heaney
p2794
I76984
sVdavid_rivers
p2795
I77970
sVkevin_brooks
p2796
I76265
sVmac_otten
p2797
I77779
sVpaul_ruffner
p2798
I78039
sVbrook_lopez
p2799
I201572
sVorien_greene
p2800
I101158
sVwhitey_bell
p2801
I76143
sVmile_ilic
p2802
I101148
sVjohnny_cox
p2803
I76464
sVclark_kellogg
p2804
I77236
sVjerry_kelly
p2805
I77237
sVlen_elmore
p2806
I600010
sVmark_aguirre
p2807
I76016
sVscottie_pippen
p2808
I937
sVfrosty_able
p2809
I76006
sVkevin_pritchard
p2810
I340
sVbob_hubbard
p2811
I77072
sVbighesh_boykoff
p2812
I76224
sVdallas_comegys
p2813
I76426
sVperry_young
p2814
I78635
sVbrandon_bass
p2815
I101138
sVphil_pressey
p2816
I203515
sVkevin_edwards
p2817
I236
sVconner_henry
p2818
I77002
sVkerry_kittles
p2819
I954
sVmonta_ellis
p2820
I101145
sVjames_harden
p2821
I201935
sVfrank_kornet
p2822
I77301
sVmal_graham
p2823
I76843
sVkeith_askins
p2824
I173
sVruben_garces
p2825
I2092
sVtrevor_booker
p2826
I202344
sVperry_moss
p2827
I77654
sVred_gardner
p2828
I76778
sVdajuan_wagner
p2829
I2402
sVryan_lorthridge
p2830
I943
sVrafael_araujo
p2831
I2737
sVmichael_cage
p2832
I262
sVjrue_holiday
p2833
I201950
sVtony_kappen
p2834
I77222
sVcharles_smith
p2835
I1520
sVmatt_walsh
p2836
I101190
sVgary_grant
p2837
I202
sVred_holzman
p2838
I77050
sVgabe_pruitt
p2839
I201172
sVtruck_robinson
p2840
I77993
sVcedric_lewis
p2841
I736
sVmike_mcgee
p2842
I77530
sVmike_bantom
p2843
I76095
sVdamian_lillard
p2844
I203081
sVjames_young
p2845
I203923
sVmark_landsberger
p2846
I77334
sVglenn_robinson_iii
p2847
I203922
sVsteve_hamer
p2848
I984
sVgeorge_munroe
p2849
I77665
sVmiles_simon
p2850
I1750
sVluke_babbitt
p2851
I202337
sVbernard_james
p2852
I203108
sVsasha_vujacic
p2853
I2756
sVart_heyman
p2854
I77015
sVmike_phelps
p2855
I77852
sVivan_mcfarlin
p2856
I200829
sVdamion_james
p2857
I202345
sVjames_robinson
p2858
I381
sVdominic_pressley
p2859
I77880
sVguy_williams
p2860
I78550
sVtracy_moore
p2861
I929
sVbrandon_knight
p2862
I202688
sVbob_mcadoo
p2863
I77498
sVchris_porter
p2864
I2084
sVpete_myers
p2865
I939
sVvincent_askew
p2866
I355
sVchucky_atkins
p2867
I1088
sVcorky_calhoun
p2868
I76330
sVjabari_smith
p2869
I2074
sVbill_hosket
p2870
I77061
sVnate_robinson
p2871
I101126
sVhubie_white
p2872
I78509
sVdane_suttle
p2873
I78281
sVdan_issel
p2874
I77097
sVdavid_west
p2875
I2561
sVterry_mills
p2876
I371
sVothella_harrington
p2877
I970
sVmoses_malone
p2878
I77449
sVdick_rosenthal
p2879
I78020
sVdave_corzine
p2880
I76453
sVbill_buntin
p2881
I76302
sVpop_goodwin
p2882
I76833
sVlarry_sanders
p2883
I202336
sVraymond_brown
p2884
I76282
sVbutch_vanbredakolff
p2885
I78401
sVjim_paxson
p2886
I77819
sVeddy_curry
p2887
I2201
sVgus_gerard
p2888
I76802
sVjuwan_howard
p2889
I436
sVgus_johnson
p2890
I77150
sVstephen_graham
p2891
I101211
sVtuck_tucker
p2892
I78372
sVhank_zeller
p2893
I78642
sVchris_carr
p2894
I713
sVearl_cureton
p2895
I940
sVsteve_alford
p2896
I76024
sVjj_anderson
p2897
I76043
sVdave_robisch
p2898
I77998
sVblackie_towery
p2899
I78363
sVanthony_jones
p2900
I77173
sVsonny_dove
p2901
I76592
sVhaywood_workman
p2902
I906
sVbernard_thompson
p2903
I78323
sVeric_moreland
p2904
I203961
sVscott_brooks
p2905
I418
sVgreg_lee
p2906
I77360
sVdel_beshore
p2907
I76159
sVken_sears
p2908
I78106
sVkenny_anderson
p2909
I72
sVtony_brown
p2910
I76268
sVjack_mccloskey
p2911
I77512
sVken_wilburn
p2912
I78524
sVdon_rehfeldt
p2913
I77933
sVnate_johnston
p2914
I77170
sVgoose_james
p2915
I77116
sVjumaine_jones
p2916
I1908
sVbud_ogden
p2917
I77747
sVjayjay_miller
p2918
I77601
sVjoseph_forte
p2919
I2218
sVaaron_miles
p2920
I101223
sVearl_barron
p2921
I2853
sVleroy_combs
p2922
I76425
sVjackie_moreland
p2923
I77639
sVben_hansbrough
p2924
I203162
sVstuart_gray
p2925
I76861
sVcarldell_johnson
p2926
I201291
sVbob_lanier
p2927
I600005
sVpj_hairston
p2928
I203798
sVderrick_caracter
p2929
I202382
sVken_rohloff
p2930
I78011
sVleo_kubiak
p2931
I77317
sVjerome_lane
p2932
I77335
sVtaj_gibson
p2933
I201959
sVjr_reid
p2934
I462
sVtony_mitchell
p2935
I203183
sVdwight_waller
p2936
I78444
sVdexter_boney
p2937
I1121
sVdarius_morris
p2938
I202721
sVsamardo_samuels
p2939
I202396
sVchad_gallagher
p2940
I76772
sVglen_davis
p2941
I201175
sVrandy_foye
p2942
I200751
sVbruce_flowers
p2943
I76725
sVtrey_thompkins
p2944
I202717
sVjeff_sanders
p2945
I1874
sVearl_watson
p2946
I2248
sVevan_fournier
p2947
I203095
sVsidney_wicks
p2948
I78520
sVbrendan_mccann
p2949
I77500
sVdevin_durrant
p2950
I76621
sVblue_edwards
p2951
I898
sVcal_bowdler
p2952
I1898
sVgilbert_arenas
p2953
I2240
sVeric_anderson
p2954
I944
sVjim_farmer
p2955
I76695
sVrichard_jefferson
p2956
I2210
sVrobert_swift
p2957
I2741
sVtim_young
p2958
I1937
sVquentin_richardson
p2959
I2047
sVluke_jackson
p2960
I2739
sVdonald_maclean
p2961
I931
sVdan_gadzuric
p2962
I2429
sVderrick_alston
p2963
I308
sVraja_bell
p2964
I1952
sVefthimios_rentzias
p2965
I981
sVradoslav_nesterovic
p2966
I1725
sVbayard_forrest
p2967
I76739
sVstretch_schultz
p2968
I78091
sVrudy_fernandez
p2969
I201164
sVchet_aubuchon
p2970
I76071
sVrobert_archibald
p2971
I2425
sVpervis_ellison
p2972
I442
sVjerome_anderson
p2973
I76040
sVbob_cousy
p2974
I600003
sVscott_skiles
p2975
I101
sVchuck_hayes
p2976
I101236
sVbob_warlick
p2977
I78459
sVjohn_henson
p2978
I203089
sVart_burris
p2979
I76311
sVron_boone
p2980
I76204
sVherbert_hill
p2981
I201195
sVjabari_brown
p2982
I203913
sVron_feiereisel
p2983
I76701
sVbob_davis
p2984
I76533
sVraef_lafrentz
p2985
I1711
sVdewayne_scales
p2986
I78068
sVbrett_vroman
p2987
I78425
sVndudi_ebi
p2988
I2569
sVjohn_morton
p2989
I1972
sVpaul_seymour
p2990
I78117
sVbill_sharman
p2991
I78126
sVsean_may
p2992
I101118
sVart_stolkey
p2993
I78266
sVcraig_spitzer
p2994
I78231
sVrod_derline
p2995
I76559
sVjack_dwan
p2996
I76624
sVlee_robbins
p2997
I77972
sVtheo_ratliff
p2998
I689
sVleon_wood
p2999
I78611
sVbilly_reid
p3000
I77937
sVmalcolm_lee
p3001
I202723
sVjerry_grote
p3002
I76896
sVluol_deng
p3003
I2736
sVcliff_pondexter
p3004
I77869
sVgiff_roux
p3005
I78026
sVleo_rautins
p3006
I77916
sVjerry_greenspan
p3007
I76880
sVdupp_larry_johnson
p3008
I77156
sVronald_dupree
p3009
I2648
sVshawn_marion
p3010
I1890
sVdave_newmark
p3011
I77712
sVandres_guibert
p3012
I76903
sVjerry_sichting
p3013
I78146
sVchuck_nevitt
p3014
I77707
sVmike_bratz
p3015
I76242
sVrawle_marshall
p3016
I101185
sVtom_meschery
p3017
I77584
sVbuddy_ackerman
p3018
I76008
sVlarry_friend
p3019
I76758
sVyvon_joseph
p3020
I77214
sVjames_white
p3021
I200778
sVjosh_davis
p3022
I2668
sVdes_smith
p3023
I78185
sVpaul_graham
p3024
I76842
sVbubba_wells
p3025
I1528
sVkiwane_garris
p3026
I1619
sVmarvin_williams
p3027
I101107
sVdeandre_liggins
p3028
I202732
sVdick_farley
p3029
I76693
sVed_dahler
p3030
I76496
sVjerry_bird
p3031
I76168
sVjohn_brisker
p3032
I76256
sVsherron_collins
p3033
I202395
sVantonio_harvey
p3034
I176
sVdejuan_wheat
p3035
I1545
sVtom_hoover
p3036
I77051
sVkevin_mchale
p3037
I1450
sVmouse_riebe
p3038
I77958
sVrock_lee
p3039
I77363
sVscott_padgett
p3040
I1909
sValan_ogg
p3041
I1628
sVwilliam_cunningham
p3042
I1061
sVdragan_tarlac
p3043
I1434
sVdick_knostman
p3044
I77292
sVjack_sikma
p3045
I78149
sVdirk_minniefield
p3046
I77609
sVamare_stoudemire
p3047
I2405
sVjakarr_sampson
p3048
I203960
sVmahmoud_abdul-rauf
p3049
I51
sVrichard_rellford
p3050
I77939
sVjeff_judkins
p3051
I77215
sVbob_gantt
p3052
I76776
sVjim_brewer
p3053
I76248
sVroger_mason-jr
p3054
I2427
sVgreg_stiemsma
p3055
I201880
sVcraig_raymond
p3056
I77921
sVrandy_allen
p3057
I76025
sVgrant_hill
p3058
I255
sVjimmy_carruth
p3059
I1131
sVjoe_stephens
p3060
I1086
sVrichie_niemiera
p3061
I77717
sVjim_ard
p3062
I76055
sVjim_caldwell
p3063
I76328
sVdennis_awtrey
p3064
I76078
sVclifford_lett
p3065
I77374
sVmario_kasun
p3066
I2435
sVdon_sunderlage
p3067
I78278
sVjim_ware
p3068
I78457
sVslick_leonard
p3069
I77371
sVbobby_wilson
p3070
I78585
sVderrick_brown
p3071
I201974
sVkevin_johnson
p3072
I134
sVwilson_washington
p3073
I78471
sVdamir_markota
p3074
I200806
sVclint_mcdaniel
p3075
I723
sVjason_smith
p3076
I201160
sVold_slavko_vranes
p3077
I2582
sVjoey_hassett
p3078
I76966
sVvitor_faverani
p3079
I203543
sVmarvin_barnes
p3080
I76104
sVluke_rackley
p3081
I77894
sVshane_larkin
p3082
I203499
sVtj_mcconnell
p3083
I204456
sVpogo_caldwell
p3084
I76329
sVesteban_batista
p3085
I101212
sVeddie_miller
p3086
I77599
sVlamar_odom
p3087
I1885
sVpete_cross
p3088
I76477
sVdominique_wilkins
p3089
I1122
sVjames_anderson
p3090
I202341
sVmike_higgins
p3091
I1848
sVbutterbean_love
p3092
I77412
sVjackie_robinson
p3093
I77989
sVbill_chamberlain
p3094
I76374
sVralph_beard
p3095
I76131
sVnikita_wilson
p3096
I78582
sVjohn_richter
p3097
I77954
sVjulius_hodge
p3098
I101125
sVwat_misaka
p3099
I77613
sVdarrick_martin
p3100
I239
sVjay_williams
p3101
I2398
sVtyrone_nesby
p3102
I1838
sVbob_donham
p3103
I76584
sVdanny_schayes
p3104
I7
sVsteve_green
p3105
I76878
sVed_kasid
p3106
I77225
sVreggie_jordan
p3107
I674
sVclifford_robinson
p3108
I361
sVcharles_thomas
p3109
I78316
sVtony_massenburg
p3110
I763
sVterrence_ross
p3111
I203082
sVyaroslav_korolev
p3112
I101117
sVbob_carpenter
p3113
I76346
sVsharone_wright
p3114
I412
sVwinston_garland
p3115
I76782
sVroy_pugh
p3116
I77889
sVeric_money
p3117
I77627
sVwalter_jordan
p3118
I77209
sVbrian_quinnett
p3119
I77893
sVwayne_yates
p3120
I78630
sVbob_shea
p3121
I78130
sVdanny_young
p3122
I78633
sVnormie_glick
p3123
I76823
sVjim_luisi
p3124
I77422
sVfred_diute
p3125
I76578
sVlaphonso_ellis
p3126
I111
sValphonso_ford
p3127
I76732
sVkostas_papanikolaou
p3128
I203123
sVbrian_oliver
p3129
I1680
sVshaquille_oneal
p3130
I406
sVhub_reed
p3131
I77927
sVfennis_dembo
p3132
I76552
sVgerard_king
p3133
I1562
sVchris_corchiani
p3134
I76450
sVfred_jones
p3135
I2410
sVmo_mahoney
p3136
I77444
sVkeith_smith
p3137
I78192
sVlance_blanks
p3138
I76183
sVben_clyde
p3139
I76409
sVjack_mcmahon
p3140
I77551
sVloren_woods
p3141
I2254
sVchris_paul
p3142
I101108
sVlouis_orr
p3143
I77770
sVbrian_shaw
p3144
I216
sVjim_mcdaniels
p3145
I77523
sVmark_madsen
p3146
I2058
sVpaul_dawkins
p3147
I76541
sVmax_morris
p3148
I77646
sVbj_armstrong
p3149
I769
sVantoine_carr
p3150
I156
sVelmer_gainer
p3151
I76769
sVjoel_freeland
p3152
I200777
sVbailey_howell
p3153
I77070
sVlarry_mikan
p3154
I77591
sVcedric_simmons
p3155
I200759
sVtony_price
p3156
I77882
sVsteve_harris
p3157
I76960
sVfred_schaus
p3158
I78075
sVraul_lopez
p3159
I2221
sVjimbo_eakins
p3160
I76628
sVbill_cartwright
p3161
I76362
sVdavid_wingate
p3162
I766
sVchris_ford
p3163
I76733
sVvictor_alexander
p3164
I2349
sVpat_cummings
p3165
I76483
sVtommy_green
p3166
I76879
sVdon_martin
p3167
I77473
sVaction_jackson
p3168
I77106
sVwally_anderzunas
p3169
I76048
sVben_uzoh
p3170
I202386
sVal_skinner
p3171
I78167
sVjulius_randle
p3172
I203944
sVdavid_burns
p3173
I76307
sVdave_budd
p3174
I76297
sVpero_antic
p3175
I203544
sVbud_stallworth
p3176
I78239
sVkemba_walker
p3177
I202689
sVdave_hoppen
p3178
I77053
sVlorenzo_charles
p3179
I76384
sVstojko_vrankovic
p3180
I1037
sVrobert_traylor
p3181
I1714
sVdesmon_farmer
p3182
I2824
sVphil_martin
p3183
I77477
sVrudy_gay
p3184
I200752
sVroy_hurley
p3185
I77086
sVcarl_thomas
p3186
I1063
sVgary_plummer
p3187
I77865
sVryan_humphrey
p3188
I2415
sVdoc_rivers
p3189
I470
sVjoe_holup
p3190
I77049
sVdoug_roth
p3191
I78021
sVjackie_ridgle
p3192
I77957
sVadam_harrington
p3193
I2492
sVrandell_jackson
p3194
I1872
sVdrew_gooden
p3195
I2400
sVlarry_owens
p3196
I202082
sVal_jefferson
p3197
I2744
sVcraig_shelton
p3198
I78132
sVjiff_wilson
p3199
I78579
sVsteve_burtt
p3200
I76316
sVaaron_swinson
p3201
I78286
sVvernon_macklin
p3202
I202731
sVal_mcguire
p3203
I77536
sVjunior_burrough
p3204
I675
sVmatt_g_guokas
p3205
I76909
sVmatt_harpring
p3206
I1723
sVjerry_baskerville
p3207
I76119
sVred_tough
p3208
I78360
sVmichael_ruffin
p3209
I1913
sVbobby_jackson
p3210
I1517
sVray_epps
p3211
I76678
sVnick_fazekas
p3212
I201174
sVdoug_bolstorff
p3213
I76197
sVdon_asmonga
p3214
I76068
sVjermaine_oneal
p3215
I979
sVhenry_james
p3216
I1080
sVhassan_whiteside
p3217
I202355
sVworthy_patterson
p3218
I77814
sVtony_l_mitchell
p3219
I203502
sVroy_hibbert
p3220
I201579
sVformerlygarycole_jeelani
p3221
I77126
sVdarius_songaila
p3222
I2443
sVgus_bailey
p3223
I76083
sVbob_burrow
p3224
I76313
sVdarrell_armstrong
p3225
I353
sVmike_dunleavy
p3226
I2399
sVjoe_dolhon
p3227
I76581
sVmichael_olowokandi
p3228
I1709
sVshellie_mcmillon
p3229
I77555
sVnate_driggers
p3230
I1041
sVshawn_respert
p3231
I704
sVmateen_cleaves
p3232
I2043
sVjavaris_crittenton
p3233
I201159
sVvin_baker
p3234
I452
sVricardo_ledo
p3235
I203495
sVed_horton
p3236
I77060
sVthedream_meminger
p3237
I77578
sVtim_perry
p3238
I897
sVdan_osullivan
p3239
I77776
sVchuck_mrazovich
p3240
I77657
sVfurkan_aldemir
p3241
I203128
sVchris_morris
p3242
I356
sVwillie_somerset
p3243
I78219
sVred_mihalik
p3244
I77589
sVhenry_pearcy
p3245
I77826
sVjay_carty
p3246
I76363
sVjohn_greig
p3247
I76885
sVmitchell_wiggins
p3248
I78523
sVmel_hirsch
p3249
I77031
sVmychel_thompson
p3250
I202814
sVdion_glover
p3251
I1901
sVjim_grandholm
p3252
I76844
sVgene_conley
p3253
I76428
sVfritz_nagy
p3254
I77684
sVbill_edwards
p3255
I76646
sVjohnny_roche
p3256
I78000
sVjamie_feick
p3257
I994
sVjusuf_nurkic
p3258
I203994
sVlance_stephenson
p3259
I202362
sVstan_brown
p3260
I76285
sVduane_ferrell
p3261
I273
sVtom_king
p3262
I77276
sVlorenzo_brown
p3263
I203485
sVdavid_stockton
p3264
I204065
sVken_austin
p3265
I76074
sVray_owes
p3266
I1077
sVtyrone_hill
p3267
I238
sVstan_miasek
p3268
I77587
sVtobias_harris
p3269
I202699
sVstevin_smith
p3270
I1478
sVdale_hamilton
p3271
I76925
sVgoo_kennedy
p3272
I77243
sVbryan_warrick
p3273
I78462
sVclinton_wheeler
p3274
I78504
sVjesse_dark
p3275
I76509
sVsam_jones
p3276
I77196
sVjon_barry
p3277
I468
sVallen_crabbe
p3278
I203459
sVmike_bytzura
p3279
I76323
sVsaul_mariaschin
p3280
I77462
sVeric_snow
p3281
I727
sVjosh_harrellson
p3282
I202725
sVdonta_smith
p3283
I2764
sVtodd_fuller
p3284
I957
sVben_wallace
p3285
I1112
sVgeoff_huston
p3286
I77087
sVswede_carlson
p3287
I76344
sVjim_walsh
p3288
I78446
sVhassan_adams
p3289
I200801
sVdorell_wright
p3290
I2748
sVharvey_grant
p3291
I265
sVdell_demps
p3292
I725
sVjamychal_green
p3293
I203210
sVessie_hollis
p3294
I77044
sVlee_nailon
p3295
I1924
sVmurray_wier
p3296
I78521
sVgeorge_brown
p3297
I76273
sVbill_bridges
p3298
I76253
sVchris_gatling
p3299
I423
sVaj_bramlett
p3300
I1920
sVmickey_davis
p3301
I76522
sVkenny_dennard
p3302
I76556
sVandre_dawkins
p3303
I203958
sVantoine_wright
p3304
I101120
sVlamarcus_aldridge
p3305
I200746
sVjohn_jenkins
p3306
I203098
sVstephen_malovic
p3307
I77450
sVrick_fox
p3308
I296
sVnate_blackwell
p3309
I76179
sVdedric_willoughby
p3310
I2000
sVearl_tatum
p3311
I78294
sVstephon_marbury
p3312
I950
sVcourtney_lee
p3313
I201584
sVbill_fenley
p3314
I76706
sVarchie_dees
p3315
I76546
sVjames_cotton
p3316
I1526
sVyork_larese
p3317
I77339
sVjack_maddox
p3318
I77439
sVwillie_norwood
p3319
I77733
sVbojan_bogdanovic
p3320
I202711
sVneal_walk
p3321
I78432
sVjohn_o'boyle
p3322
I77742
sVwes_unseld
p3323
I78392
sVian_lockhart
p3324
I1100
sVantonio_mcdyess
p3325
I686
sVrik_smits
p3326
I22
sVgeorge_carter
p3327
I76357
sVmike_champion
p3328
I76378
sVgary_voce
p3329
I78419
sVjarell_martin
p3330
I1626185
sVernie_killum
p3331
I77257
sVdahntay_jones
p3332
I2563
sVhubert_davis
p3333
I93
sVtony_lavelli
p3334
I77346
sVjerry_sloan
p3335
I78173
sVdirk_nowitzki
p3336
I1717
sVshelden_williams
p3337
I200749
sVrichie_frahm
p3338
I2499
sVdwight_powell
p3339
I203939
sVrolly_hans
p3340
I76939
sVrod_knowles
p3341
I77293
sVpeyton_siva
p3342
I203491
sVarnie_ferrin
p3343
I76711
sVdeng_gai
p3344
I101184
sVtang_hamilton
p3345
I2347
sVjamaal_tinsley
p3346
I2224
sVvic_bartolome
p3347
I76118
sVjerry_fleishman
p3348
I76721
sVherm_hedderick
p3349
I76986
sVcasey_jacobsen
p3350
I2418
sVsidney_moncrief
p3351
I77626
sVlongjohn;stretch_mahnken
p3352
I77443
sVsteve_goodrich
p3353
I1864
sVnemanja_nedovic
p3354
I203517
sVdanny_vranes
p3355
I78423
sVdave_gambee
p3356
I76774
sVpatrick_obryant
p3357
I200753
sVpaul_pressey
p3358
I77879
sVsean_elliott
p3359
I251
sVjohn_bagley
p3360
I76082
sVbob_priddy
p3361
I77886
sVgene_rock
p3362
I78001
sVvernon_maxwell
p3363
I137
sVconnie_simmons
p3364
I78153
sVdave_henderson
p3365
I76991
sVbill_f_smith
p3366
I78209
sVernest_brown
p3367
I2081
sVoj_mayo
p3368
I201564
sVsteve_stipanovich
p3369
I78257
sVrandy_denton
p3370
I76558
sVjohn_shumate
p3371
I78143
sVmartin_lewis
p3372
I729
sVtravis_hansen
p3373
I2580
sVadrian_branch
p3374
I76237
sVbracey_wright
p3375
I101152
sVmel_nowell
p3376
I77737
sVdarius_johnson-odom
p3377
I203130
sVlangston_galloway
p3378
I204038
sVgreg_ostertag
p3379
I731
sVkris_humphries
p3380
I2743
sVroyce_white
p3381
I203091
sVbuck_johnson
p3382
I77130
sVjustus_thigpen
p3383
I78313
sVanthony_cook
p3384
I76433
sVricky_berry
p3385
I76157
sVbud_acton
p3386
I76010
sVbob_ferry
p3387
I76712
sVmagic_johnson
p3388
I77142
sVgeert_hammink
p3389
I903
sVjermareo_davidson
p3390
I201176
sVcozell_mcqueen
p3391
I77565
sVgeorge_bonsalle
p3392
I76203
sVdikembe_mutombo
p3393
I87
sVlucas_nogueira
p3394
I203512
sVtodd_mitchell
p3395
I77614
sVherk_baltimore
p3396
I76092
sVreggie_harding
p3397
I76945
sVtony_campbell
p3398
I76338
sVbruce_douglas
p3399
I76588
sVmel_gibson
p3400
I76809
sVjim_davis
p3401
I76525
sVdick_cunningham
p3402
I76485
sVlorenzo_williams
p3403
I31
sValeksandar_pavlovic
p3404
I2562
sVgene_stump
p3405
I78275
sVbill_dinwiddie
p3406
I76576
sVkelvin_cato
p3407
I1509
sVdick_mehen
p3408
I77572
sVmike_sojourner
p3409
I78217
sVhank_finkel
p3410
I76716
sVjohn_salley
p3411
I927
sVjajuan_johnson
p3412
I202707
sVmark_jackson
p3413
I349
sVjay_vincent
p3414
I78418
sVian_mahinmi
p3415
I101133
sVmarty_passaglia
p3416
I77806
sVerick_green
p3417
I203475
sVmartin_muursepp
p3418
I982
sVjarvis_hayes
p3419
I2553
sVmike_morrison
p3420
I77649
sVgrady_o'malley
p3421
I77766
sVmookie_blaylock
p3422
I302
sVtim_breaux
p3423
I160
sVkeith_starr
p3424
I78243
sVwig_pearcy
p3425
I77825
sVjeff_mcinnis
p3426
I976
sVbob_gross
p3427
I76895
sVossie_schectman
p3428
I78078
sVsly_williams
p3429
I78570
sVgrant_jerrett
p3430
I203511
sVdemarre_carroll
p3431
I201960
sVtrey_johnson
p3432
I201234
sVjoe_cooper
p3433
I76443
sVkyle_weaver
p3434
I201602
sVjohnny_newman
p3435
I271
sVgerry_calabrese
p3436
I76326
sVstephen_curry
p3437
I201939
sVgreg_kelser
p3438
I77239
sVleron_ellis
p3439
I1034
sVgary_bergen
p3440
I76156
sVwillie_cauley-stein
p3441
I1626161
sVtj_ford
p3442
I2551
sVjohn_tschogl
p3443
I78370
sVgeorge_mikan
p3444
I600012
sVdudley_bradley
p3445
I76231
sVtodd_day
p3446
I103
sVbrian_evans
p3447
I967
sVterrence_williams
p3448
I201944
sVvlade_divac
p3449
I124
sVricky_pierce
p3450
I894
sVtom_stith
p3451
I78260
sVace_maughan
p3452
I77485
sVjason_kidd
p3453
I467
sVandrew_toney
p3454
I78351
sVdj_white
p3455
I201591
sVmaurice_ager
p3456
I200772
sVbrooms_abramovic
p3457
I76007
sVjason_williams
p3458
I1715
sVterry_dischinger
p3459
I76577
sVtiger_harrison
p3460
I76962
sVmichael_wiley
p3461
I78527
sVmike_harris
p3462
I200839
sVlloyd_neal
p3463
I77696
sVbrandin_knight
p3464
I2688
sVdion_waiters
p3465
I203079
sVjohn_battle
p3466
I174
sVkelly_oubre
p3467
I1626162
sVlitterial_green
p3468
I1036
sVdupp_luke_jackson
p3469
I77103
sVdan_kraus
p3470
I77309
sVmicheal_ray_richardson
p3471
I77952
sVclifford_ray
p3472
I77917
sVdwyane_wade
p3473
I2548
sVal_horford
p3474
I201143
sVbo_ellis
p3475
I76664
sVbill_ebben
p3476
I76633
sVscott_meents
p3477
I77571
sVsatch_sanders
p3478
I78060
sVjack_molinas
p3479
I77624
sVjack_foley
p3480
I76729
sVal_lujack
p3481
I77423
sVlarry_bird
p3482
I1449
sVben_schadler
p3483
I78070
sVed_conlin
p3484
I76429
sVdarrell_arthur
p3485
I201589
sVbobby_wanzer
p3486
I78453
sVlou_tsioropoulos
p3487
I78371
sVmike_mcdonald
p3488
I1075
sVvictor_claver
p3489
I201964
sVjohn_garris
p3490
I76791
sVantoine_walker
p3491
I952
sVtorraye_braggs
p3492
I1765
sVbrian_martin
p3493
I77469
sVchips_sobek
p3494
I78214
sVjack_parkinson
p3495
I77801
sVshareef_abdur-rahim
p3496
I949
sVjulius_erving
p3497
I76681
sVjohnny_baum
p3498
I76125
sVike_borsavage
p3499
I76209
sVwalter_berry
p3500
I76158
sVtim_thomas
p3501
I1501
sVudonis_haslem
p3502
I2617
sVjoe_dumars
p3503
I247
sVpriest_lauderdale
p3504
I968
sVjohnny_dawkins
p3505
I1008
sVronnie_price
p3506
I101179
sVfred_saunders
p3507
I78065
sVzarko_paspalj
p3508
I1097
sVstephen_jackson
p3509
I1536
sVlou_hudson
p3510
I77074
sVbrad_holland
p3511
I77040
sVbruno_sundov
p3512
I1743
sVpep_saul
p3513
I78063
sVlloyd_walton
p3514
I78449
sVchris_singleton
p3515
I202698
sVcharlie_davis
p3516
I76519
sVerick_strickland
p3517
I1065
sVtim_hardaway
p3518
I896
sVjack_marin
p3519
I77463
sVwayne_molis
p3520
I77625
sVdaniel_gibson
p3521
I200789
sVjosh_boone
p3522
I200767
sVchink_crossin
p3523
I76479
sVkannard_johnson
p3524
I77153
sVdeandre_jordan
p3525
I201599
sVjim_reid
p3526
I77935
sVjosh_huestis
p3527
I203962
sVdennis_johnson
p3528
I77141
sVred_davis
p3529
I76524
sVmarlon_garnett
p3530
I1831
sVtony_windis
p3531
I78590
sVmark_blount
p3532
I1548
sVkent_benson
p3533
I76154
sVralph_wells
p3534
I78489
sVjoe_smith
p3535
I693
sVfred_paine
p3536
I77790
sVchris_anstey
p3537
I1512
sVdon_savage
p3538
I78066
sVsteve_bucknall
p3539
I76294
sVterrence_jones
p3540
I203093
sVdale_schlueter
p3541
I78084
sVjeremy_pargo
p3542
I202951
sVroger_powell
p3543
I101232
sVsedale_threatt
p3544
I9
sVmichael_finley
p3545
I714
sVjoe_fulks
p3546
I76764
sVjimmy_walker
p3547
I78439
sVearl_monroe
p3548
I600006
sVrichaun_holmes
p3549
I1626158
sVgary_leonard
p3550
I77370
sVrobert_werdann
p3551
I438
sVwiley_peck
p3552
I77827
sVjames_worthy
p3553
I1460
sVdelaney_rudd
p3554
I78035
sVlucious_harris
p3555
I446
sVdolph_schayes
p3556
I78076
sVben_mcdonald
p3557
I77524
sVcj_mccollum
p3558
I203468
sVjames_thomas
p3559
I2839
sVprice_brookfield
p3560
I76264
sVmarco_belinelli
p3561
I201158
sVtrey_burke
p3562
I203504
sVzendon_hamilton
p3563
I1985
sVbob_schafer
p3564
I78072
sVhank_mcdowell
p3565
I77527
sVtierre_brown
p3566
I2357
sVed_lawrence
p3567
I77348
sVskeeter_henry
p3568
I77003
sVsam_lacey
p3569
I77326
sVjohn_long
p3570
I1381
sVglen_selbo
p3571
I78109
sVfreddie_scolari
p3572
I78094
sVjorge_garbajosa
p3573
I200816
sVjoe_roberts
p3574
I77977
sVnick_mantis
p3575
I77457
sVsim_bhullar
p3576
I204021
sVmoe_barr
p3577
I76113
sVbob_bigelow
p3578
I76165
sVjoey_dorsey
p3579
I201595
sVjeremy_evans
p3580
I202379
sVmanute_bol
p3581
I76195
sVgerald_henderson
p3582
I201945
sVtito_horford
p3583
I77057
sVderrick_favors
p3584
I202324
sVjuan_dixon
p3585
I2413
sVbrendan_haywood
p3586
I2217
sVjohn_brown
p3587
I76276
sVgoose_givens
p3588
I76819
sVdarius_miles
p3589
I2032
sVmilt_wagner
p3590
I78429
sVrick_wilson
p3591
I78583
sVira_newble
p3592
I1956
sVdave_bing
p3593
I76166
sVphil_zevenbergen
p3594
I78644
sVlarry_demic
p3595
I76553
sVjeff_ayres
p3596
I201965
sVed_rains
p3597
I77904
sVmoe_ollrich
p3598
I77764
sVben_mclemore
p3599
I203463
sVterry_driscoll
p3600
I76603
sVdonnell_harvey
p3601
I2051
sVdave_zeller
p3602
I78640
sVdemarcus_cousins
p3603
I202326
sVtom_kropp
p3604
I77314
sVsam_jacobson
p3605
I1734
sVkevon_looney
p3606
I1626172
sVemmette_bryant
p3607
I76289
sVmel_hutchins
p3608
I77089
sVdarius_miller
p3609
I203121
sVkornel_david
p3610
I1600
sVken_green
p3611
I76868
sVjosh_howard
p3612
I2572
sVeddie_lee_wilkins
p3613
I78534
sVbill_miller
p3614
I77605
sVpaul_grant
p3615
I1514
sVdick_schulz
p3616
I78092
sVgeezer_porter
p3617
I77875
sVtony_dawson
p3618
I76542
sVmike_woodson
p3619
I78614
sVbrian_winters
p3620
I78600
sVdan_tieman
p3621
I78342
sVkeith_van_horn
p3622
I1496
sVcedric_ceballos
p3623
I76
sVbernie_fryer
p3624
I76761
sVdave_feitl
p3625
I76703
sVmike_okoren
p3626
I77754
sVgod_shammgod
p3627
I1539
sVmule_o'shields
p3628
I77774
sVphil_hankinson
p3629
I76936
sVmoe_becker
p3630
I76137
sVken_mcbride
p3631
I77499
sVstefano_rusconi
p3632
I474
sVbarry_orms
p3633
I77768
sVothello_hunter
p3634
I201629
sVmarcus_e_williams
p3635
I201173
sVfred_hilton
p3636
I77029
sVjimmy_jones
p3637
I77186
sVgeorge_mcleod
p3638
I77549
sVhenry_turner
p3639
I78379
sVbrian_butch
p3640
I202221
sVsteve_colter
p3641
I306
sVchris_washburn
p3642
I78463
sVcharles_jones
p3643
I279
sVdon_boven
p3644
I76214
sVgary_payton
p3645
I56
sVearl_jones
p3646
I77183
sVbryant_stith
p3647
I179
sVjeff_teague
p3648
I201952
sVjonathan_bender
p3649
I1886
sVdwight_howard
p3650
I2730
sVfrank_williams
p3651
I2421
sVwayne_englestad
p3652
I76671
sVpaul_mcpherson
p3653
I2101
sVed_davis
p3654
I202334
sVrick_adelman
p3655
I76015
sVwayman_tisdale
p3656
I47
sVjoe_kleine
p3657
I170
sVjoe_barry_carroll
p3658
I76353
sVmickael_pietrus
p3659
I2554
sVwilliam_bedford
p3660
I76138
sVtibor_pleiss
p3661
I202353
sVcorey_williams
p3662
I101258
sVdanny_ainge
p3663
I76017
sVjack_parr
p3664
I77802
sVclarence_glover
p3665
I76825
sVandrew_gaze
p3666
I1845
sVglenn_hagan
p3667
I76913
sVlorenzen_wright
p3668
I953
sVanthony_randolph
p3669
I201576
sVbuddy_davis
p3670
I76536
sVhowie_rader
p3671
I77895
sVchris_webber
p3672
I185
sVmike_macaluso
p3673
I77428
sVthomas_hamilton
p3674
I676
sVgeorge_patterson
p3675
I77811
sVrich_manning
p3676
I316
sVhilton_armstrong
p3677
I200756
sVbrandon_hunter
p3678
I2599
sVzeljko_rebraca
p3679
I1442
sVwil_jones
p3680
I77201
sVred_klotz
p3681
I77284
sVgeorge_feigenbaum
p3682
I76702
sVmanny_leaks
p3683
I77351
sVkirk_penney
p3684
I2632
sVlouis_williams
p3685
I101150
sVpopeye_jones
p3686
I461
sVkareem_rush
p3687
I2416
sVfred_roberts
p3688
I122
sVjerrelle_benimon
p3689
I203968
sVed_earle
p3690
I76630
sVandre_turner
p3691
I78377
sVtremaine_fowlkes
p3692
I1762
sValan_anderson
p3693
I101187
sVdike_eddleman
p3694
I76636
sVwilbur_holland
p3695
I77042
sVantoine_rigaudeau
p3696
I2541
sVbilly_knight
p3697
I77290
sVjerome_james
p3698
I1744
sVeric_riley
p3699
I35
sVguy_sparrow
p3700
I78223
sVkyle_korver
p3701
I2594
sVanthony_taylor
p3702
I78295
sVbrian_cook
p3703
I2567
sVjoe_ellis
p3704
I76661
sVmarc_iavaroni
p3705
I77092
sVtab_skinner
p3706
I78168
sVcornell_warner
p3707
I78460
sVbrook_steppe
p3708
I78250
sVtim_mccormick
p3709
I77516
sVmouhamed_sene
p3710
I200754
sVdemetrius_calip
p3711
I76332
sVdelon_wright
p3712
I1626153
sVjohn_mcconathy
p3713
I77513
sVjim_cleamons
p3714
I76402
sVtyler_zeller
p3715
I203092
sVcalvin_garrett
p3716
I76786
sVreggie_king
p3717
I77273
sVtim_frazier
p3718
I204025
sVdesagana_diop
p3719
I2205
sVkevinn_pinkney
p3720
I200838
sVjoe_alexander
p3721
I201570
sVmyles_patrick
p3722
I77808
sVaron_baynes
p3723
I203382
sVtyshawn_taylor
p3724
I203116
sVrod_hundley
p3725
I77082
sVuros_slokar
p3726
I101166
sVharvey_marlatt
p3727
I77464
sVronnie_grandison
p3728
I97
sVennis_whatley
p3729
I941
sVkosta_koufos
p3730
I201585
sVron_lee
p3731
I77364
sVrick_barry
p3732
I600013
sVdemar_derozan
p3733
I201942
sVlongjohn_mills
p3734
I77606
sVsharrod_ford
p3735
I101213
sVted_manakas
p3736
I77451
sVjimmy_butler
p3737
I202710
sVrastko_cvetkovic
p3738
I687
sVcurtis_rowe
p3739
I78028
sVmike_penberthy
p3740
I2130
sVshandon_anderson
p3741
I1000
sVarnie_johnson
p3742
I77132
sVmike_glenn
p3743
I76822
sVjonny_flynn
p3744
I201938
sVhersey_hawkins
p3745
I765
sVharry_gallatin
p3746
I76773
sVsam_k_williams
p3747
I78569
sVdavid_noel
p3748
I200786
sVkevin_grevey
p3749
I76887
sVgerald_madkins
p3750
I1666
sVmichael_kidd-gilchrist
p3751
I203077
sVluis_flores
p3752
I2784
sVneil_johnston
p3753
I77169
sVwalt_gilmore
p3754
I76817
sVbill_melchionni
p3755
I77576
sVrobert_vaden
p3756
I201987
sVpape_sy
p3757
I202377
sValex_kirk
p3758
I203945
sVkirk_snyder
p3759
I2745
sVkurt_nimphius
p3760
I77719
sVlester_conner
p3761
I76431
sVal_jackson
p3762
I77099
sVrobin_lopez
p3763
I201577
sVwhitey_kachan
p3764
I77217
sVben_handlogten
p3765
I1052
sVlawrence_funderburke
p3766
I1444
sVmarv_schatzman
p3767
I78074
sVderek_strong
p3768
I400
sVbob_anderegg
p3769
I76034
sVgheorghe_muresan
p3770
I49
sVpatrick_patterson
p3771
I202335
sVsam_bowie
p3772
I76217
sVsam_vincent
p3773
I78417
sVpinball_twardzik
p3774
I78387
sVronnie_macgilvray
p3775
I77430
sVgary_garland
p3776
I76781
sVboo_ellis
p3777
I76658
sVcheikh_samb
p3778
I200798
sVreggie_bullock
p3779
I203493
sVmark_eaton
p3780
I76631
sVjeff_webb
p3781
I78477
sVdorie_murrey
p3782
I77676
sVchris_munk
p3783
I77664
sVmike_barr
p3784
I76112
sViman_shumpert
p3785
I202697
sVtravis_wear
p3786
I204037
sVcezary_trybanski
p3787
I2456
sVjeff_hornacek
p3788
I204
sVgreg_anderson
p3789
I246
sVbarry_kramer
p3790
I77307
sVjoffrey_lauvergne
p3791
I203530
sVleroy_chollet
p3792
I76391
sVmark_minor
p3793
I77612
sVbrent_scott
p3794
I1064
sVjustin_reed
p3795
I2770
sVcarl_shaeffer
p3796
I78120
sVrichard_petruska
p3797
I77846
sVdan_roundfield
p3798
I78025
sVroshown_mcleod
p3799
I1728
sVcuonzo_martin
p3800
I733
sVal_ferrari
p3801
I76708
sVnicolas_batum
p3802
I201587
sVzach_lavine
p3803
I203897
sVmarcus_brown
p3804
I992
sVterrance_roberson
p3805
I2121
sVal_fleming
p3806
I76722
sVjack_eskridge
p3807
I76682
sVdave_debusschere
p3808
I76545
sVjohn_chaney
p3809
I76380
sVdeshawn_stevenson
p3810
I2052
sVrashad_mccants
p3811
I101119
sVtom_black
p3812
I76175
sVjames_hardy
p3813
I76948
sVian_clark
p3814
I203546
sVbird_averitt
p3815
I76076
sVhenry_akin
p3816
I76018
sVchris_mccray
p3817
I200840
sVshane_edwards
p3818
I202197
sVgreg_anthony
p3819
I21
sVjim_nolan
p3820
I77724
sVpelky_pelkington
p3821
I77828
sVbob_harris
p3822
I76959
sValonzo_mourning
p3823
I297
sVbob_sura
p3824
I682
sVdoug_overton
p3825
I77
sVtony_jaros
p3826
I77123
sVbill_ligon
p3827
I77388
sVcory_joseph
p3828
I202709
sVben_gillery
p3829
I76812
sVdan_godfread
p3830
I76827
sVadreian_payne
p3831
I203940
sVcj_miles
p3832
I101139
sVvern_fleming
p3833
I313
sVjim_phelan
p3834
I77849
sVmaurice_taylor
p3835
I1508
sVbruno_caboclo
p3836
I203998
sVelgin_baylor
p3837
I76127
sVharold_jamison
p3838
I1942
sVfloyd_volker
p3839
I78420
sVfrankiej_sanders
p3840
I78057
sVkasib_powell
p3841
I2867
sVbonzi_wells
p3842
I1719
sVjordan_williams
p3843
I202716
sVtmp_reggie_geary
p3844
I1002
sVtom_kozelko
p3845
I77305
sVjosh_selby
p3846
I202729
sVeddie_phillips
p3847
I77854
sVsteve_patterson
p3848
I77812
sVantonio_davis
p3849
I213
sVrobert_smith
p3850
I78204
sVterry_rozier
p3851
I1626179
sVaj_price
p3852
I201985
sVjimmy_oliver
p3853
I1429
sVtim_james
p3854
I1906
sVroger_jorgensen
p3855
I77213
sVaustin_daye
p3856
I201948
sVlamar_green
p3857
I600011
sVfrank_ramsey
p3858
I77907
sVbuck_williams
p3859
I433
sVthehawk_mcneill
p3860
I77561
sVpaul_mccracken
p3861
I77517
sVtyler_johnson
p3862
I204020
sVdick_dickey
p3863
I76565
sVbryant_reeves
p3864
I735
sVrodney_rogers
p3865
I915
sVwillie_white
p3866
I78515
sVronnie_murphy
p3867
I77673
sVmike_novak
p3868
I77736
sVmaciej_lampe
p3869
I2573
sVspeed_spector
p3870
I78226
sVbob_carney
p3871
I76345
sVec_coleman
p3872
I76413
sVdupp_rudy_tomjanovich
p3873
I78350
sVeric_maynor
p3874
I201953
sVevan_turner
p3875
I202323
sVjim_burns
p3876
I76309
sVandre_moore
p3877
I77632
sVwayne_hightower
p3878
I77023
sVbennie_swain
p3879
I78283
sVgorgui_dieng
p3880
I203476
sVbob_royer
p3881
I78033
sVjason_kapono
p3882
I2574
sVtristan_t_thompson
p3883
I202684
sVharold_fox
p3884
I76746
sVadam_keefe
p3885
I228
sVdante_cunningham
p3886
I201967
sVjeff_halliburton
p3887
I76923
sVjohnny_moore
p3888
I77633
sVduke_hogue
p3889
I77038
sVstan_kimbrough
p3890
I77261
sVdarryl_watkins
p3891
I201208
sVmario_elie
p3892
I53
sVjoe_mcnamee
p3893
I77559
sVmark_jones
p3894
I2891
sVmichael_beasley
p3895
I201563
sVsonny_weems
p3896
I201603
sVerik_murphy
p3897
I203513
sVjerome_dyson
p3898
I202406
sVleon_douglas
p3899
I76590
sVmyron_jackson
p3900
I77105
sVandrew_goudelock
p3901
I202726
sVal_eberhard
p3902
I76634
sVjoseph_crispin
p3903
I2343
sVbud_palmer
p3904
I77793
sVfreddie_boyd
p3905
I76222
sVcedric_henderson
p3906
I76990
sVlarry_kenon
p3907
I77246
sVdick_garrett
p3908
I76788
sVdoyle_parrack
p3909
I77803
sVjahidi_white
p3910
I1751
sVjames_southerland
p3911
I203480
sVsean_singletary
p3912
I201606
sVadonal_foyle
p3913
I1502
sVdajuan_summers
p3914
I201969
sVjohnny_neumann
p3915
I77705
sVollie_johnson
p3916
I77162
sVlonny_baxter
p3917
I2437
sVmarlon_redmond
p3918
I77926
sVnemanja_bjelica
p3919
I202357
sVplummer_lott
p3920
I77410
sVdwayne_whitfield
p3921
I730
sVjerome_harmon
p3922
I76952
sVha_seung-jin
p3923
I2775
sVgeorge_zidek
p3924
I678
sVfrank_radovich
p3925
I77899
sVsteven_hill
p3926
I201631
sVjesse_branson
p3927
I76240
sVmarty_byrnes
p3928
I76321
sVjohn_crotty
p3929
I180
sVwayne_radford
p3930
I77897
sVdoug_holcomb
p3931
I77039
sVsi_green
p3932
I76877
sVdino_martin
p3933
I77471
sVchuck_halbert
p3934
I76918
sVdj_mbenga
p3935
I2788
sVfrankie_king
p3936
I701
sVmike_price
p3937
I77884
sVpj_brown
p3938
I136
sVeddie_basden
p3939
I101188
sVreggie_jackson
p3940
I202704
sVscooter_mccray
p3941
I77518
sVomer_asik
p3942
I201600
sVjohn_duren
p3943
I76619
sVdarren_tillis
p3944
I78343
sVhiram_fuller
p3945
I2673
sVcrystal_klier
p3946
I77283
sVjimmy_lampley
p3947
I77333
sVbelus_smawley
p3948
I78176
sVjeremy_tyler
p3949
I202719
sVjohn_janisch
p3950
I77120
sVrodney_hood
p3951
I203918
sVtom_scheffler
p3952
I78080
sValfredrick_hughes
p3953
I77076
sVdean_garrett
p3954
I1051
sVdonnie_freeman
p3955
I76754
sVjim_mcmillian
p3956
I77554
sVdarrell_lockhart
p3957
I77399
sVterry_duerod
p3958
I76608
sVbruce_seals
p3959
I78103
sVgerald_glass
p3960
I76821
sVmel_counts
p3961
I76458
sVtharon_mayes
p3962
I77493
sVreggie_lewis
p3963
I77384
sVmike_hall
p3964
I200837
sVjoao_vianna
p3965
I78416
sVlamond_murray
p3966
I441
sVrick_carlisle
p3967
I76342
sVtom_mcmillen
p3968
I77553
sVtim_ohlbrecht
p3969
I203317
sVchandler_parsons
p3970
I202718
sVricky_marsh
p3971
I77465
sVcharles_oakley
p3972
I891
sVdavid_thompson
p3973
I78326
sVjaren_jackson
p3974
I1114
sVlandry_fields
p3975
I202361
sVmarv_winkler
p3976
I78597
sVderek_grimm
p3977
I1575
sVjustin_holiday
p3978
I203200
sVarchie_goodwin
p3979
I203462
sVty_lawson
p3980
I201951
sVbob_pettit
p3981
I77847
sVbob_faught
p3982
I76696
sVdarrell_walker
p3983
I78437
sVelston_turner
p3984
I78378
sVmalik_hairston
p3985
I201612
sVdasean_butler
p3986
I202364
sVron_moore
p3987
I77637
sVjake_tsakalidis
p3988
I2054
sVmark_olberding
p3989
I77756
sVtom_henderson
p3990
I76996
sVzaza_pachulia
p3991
I2585
sVbrian_roberts
p3992
I203148
sVred_perkins
p3993
I77834
sVcharlie_johnson
p3994
I77133
sVtyrone_britt
p3995
I76258
sVtom_abernethy
p3996
I76005
sVreggie_slater
p3997
I1073
sVdarryl_dawkins
p3998
I76539
sVkenny_sailors
p3999
I78051
sVsam_dekker
p4000
I1626155
sVbutch_feher
p4001
I76699
sVterrell_brandon
p4002
I210
sVron_johnson
p4003
I77165
sVdarnell_jackson
p4004
I201616
sVrowland_garrett
p4005
I76789
sVcotton_nash
p4006
I77687
sVdijon_thompson
p4007
I101159
sVrod_foster
p4008
I76742
sVtimofey_mozgov
p4009
I202389
sVcraig_smith
p4010
I200783
sVthomas_robinson
p4011
I203080
sVgreg_minor
p4012
I65
sVsteve_blake
p4013
I2581
sVperry_jones
p4014
I203103
sVarinze_onuaku
p4015
I202620
sVbrooks_thompson
p4016
I240
sVelmore_smith
p4017
I78188
sVstanley_johnson
p4018
I1626169
sValeksandar_radojevic
p4019
I1893
sVjunior_bridgeman
p4020
I76252
sVqyntel_woods
p4021
I2417
sVmark_randall
p4022
I1821
sVgeorge_king
p4023
I77268
sVbrandon_rush
p4024
I201575
sVspencer_haywood
p4025
I76981
sVgary_gray
p4026
I76859
sVshane_battier
p4027
I2203
sVjeff_grayer
p4028
I81
sVchris_king
p4029
I12
sVjr_bremer
p4030
I2452
sVaaron_mckie
p4031
I243
sVcliff_anderson
p4032
I76035
sVrick_roberson
p4033
I77973
sVmario_bennett
p4034
I712
sVbrian_grant
p4035
I258
sVbob_santini
p4036
I78061
sVjohn_celestand
p4037
I1911
sVjim_jackson
p4038
I754
sVenes_kanter
p4039
I202683
sVfelipe_lopez
p4040
I1732
sVish_smith
p4041
I202397
sVlarry_smith
p4042
I78195
s.